	.text
	.syntax unified
	.eabi_attribute	67, "2.09"	@ Tag_conformance
	.cpu	cortex-m4
	.eabi_attribute	6, 13	@ Tag_CPU_arch
	.eabi_attribute	7, 77	@ Tag_CPU_arch_profile
	.eabi_attribute	8, 0	@ Tag_ARM_ISA_use
	.eabi_attribute	9, 2	@ Tag_THUMB_ISA_use
	.fpu	fpv4-sp-d16
	.eabi_attribute	27, 1	@ Tag_ABI_HardFP_use
	.eabi_attribute	36, 1	@ Tag_FP_HP_extension
	.eabi_attribute	34, 1	@ Tag_CPU_unaligned_access
	.eabi_attribute	17, 1	@ Tag_ABI_PCS_GOT_use
	.eabi_attribute	20, 2	@ Tag_ABI_FP_denormal
	.eabi_attribute	21, 0	@ Tag_ABI_FP_exceptions
	.eabi_attribute	23, 1	@ Tag_ABI_FP_number_model
	.eabi_attribute	24, 1	@ Tag_ABI_align_needed
	.eabi_attribute	25, 1	@ Tag_ABI_align_preserved
	.eabi_attribute	28, 1	@ Tag_ABI_VFP_args
	.eabi_attribute	38, 1	@ Tag_ABI_FP_16bit_format
	.eabi_attribute	18, 2	@ Tag_ABI_PCS_wchar_t
	.eabi_attribute	26, 1	@ Tag_ABI_enum_size
	.eabi_attribute	14, 0	@ Tag_ABI_PCS_R9_use
	.file	"fmc.c"
	.file	1 "C:\\Users\\dinhl" "AppData\\Local\\Keil_v5\\ARM\\ARMCLANG\\bin\\..\\include\\stdint.h"
	.file	2 "C:\\Users\\dinhl\\Documents\\Tesy\\EEET2481_A3_TETRISGAME" "Library/StdDriver/src/fmc.c"
	.file	3 "C:\\Users\\dinhl\\Documents\\Tesy\\EEET2481_A3_TETRISGAME" "./Library/Device/Nuvoton/M480/Include\\fmc_reg.h"
	.section	.text.FMC_Close,"ax",%progbits
	.hidden	FMC_Close                       @ -- Begin function FMC_Close
	.globl	FMC_Close
	.p2align	2
	.type	FMC_Close,%function
	.code	16                              @ @FMC_Close
	.thumb_func
FMC_Close:
.Lfunc_begin0:
	.loc	2 36 0                          @ Library/StdDriver/src/fmc.c:36:0
	.fnstart
	.cfi_sections .debug_frame
	.cfi_startproc
@ %bb.0:
	movw	r0, #49152
	movt	r0, #16384
.Ltmp0:
	.loc	2 37 17 prologue_end            @ Library/StdDriver/src/fmc.c:37:17
	ldr	r1, [r0]
	bic	r1, r1, #1
	str	r1, [r0]
	.loc	2 38 1                          @ Library/StdDriver/src/fmc.c:38:1
	bx	lr
.Ltmp1:
.Lfunc_end0:
	.size	FMC_Close, .Lfunc_end0-FMC_Close
	.cfi_endproc
	.cantunwind
	.fnend
                                        @ -- End function
	.section	.text.FMC_ConfigXOM,"ax",%progbits
	.hidden	FMC_ConfigXOM                   @ -- Begin function FMC_ConfigXOM
	.globl	FMC_ConfigXOM
	.p2align	2
	.type	FMC_ConfigXOM,%function
	.code	16                              @ @FMC_ConfigXOM
	.thumb_func
FMC_ConfigXOM:
.Lfunc_begin1:
	.loc	2 57 0                          @ Library/StdDriver/src/fmc.c:57:0
	.fnstart
	.cfi_startproc
@ %bb.0:
	@DEBUG_VALUE: FMC_ConfigXOM:u32XomNum <- $r0
	@DEBUG_VALUE: FMC_ConfigXOM:u32XomBase <- $r1
	@DEBUG_VALUE: FMC_ConfigXOM:u8XomPage <- $r2
	.save	{r4, r5, r6, lr}
	push	{r4, r5, r6, lr}
	.cfi_def_cfa_offset 16
	.cfi_offset lr, -4
	.cfi_offset r6, -8
	.cfi_offset r5, -12
	.cfi_offset r4, -16
.Ltmp2:
	.loc	2 61 22 prologue_end            @ Library/StdDriver/src/fmc.c:61:22
	movw	r12, :lower16:g_FMC_i32ErrCode
	movt	r12, :upper16:g_FMC_i32ErrCode
	movs	r3, #0
	.loc	2 63 9                          @ Library/StdDriver/src/fmc.c:63:9
	cmp	r0, #3
	.loc	2 61 22                         @ Library/StdDriver/src/fmc.c:61:22
	str.w	r3, [r12]
	.loc	2 63 9                          @ Library/StdDriver/src/fmc.c:63:9
	bls	.LBB1_2
.Ltmp3:
@ %bb.1:
	@DEBUG_VALUE: FMC_ConfigXOM:u8XomPage <- $r2
	@DEBUG_VALUE: FMC_ConfigXOM:u32XomBase <- $r1
	@DEBUG_VALUE: FMC_ConfigXOM:u32XomNum <- $r0
	.loc	2 0 9 is_stmt 0                 @ Library/StdDriver/src/fmc.c:0:9
	mvn	r0, #1
.Ltmp4:
	@DEBUG_VALUE: FMC_ConfigXOM:u32XomNum <- [DW_OP_LLVM_entry_value 1] $r0
	str.w	r0, [r12]
	.loc	2 130 1 epilogue_begin is_stmt 1 @ Library/StdDriver/src/fmc.c:130:1
	pop	{r4, r5, r6, pc}
.Ltmp5:
.LBB1_2:
	@DEBUG_VALUE: FMC_ConfigXOM:u8XomPage <- $r2
	@DEBUG_VALUE: FMC_ConfigXOM:u32XomBase <- $r1
	@DEBUG_VALUE: FMC_ConfigXOM:u32XomNum <- $r0
	@DEBUG_VALUE: FMC_ConfigXOM:u8XomPage <- $r2
	.loc	2 0 1 is_stmt 0                 @ Library/StdDriver/src/fmc.c:0:1
	movw	r6, #49344
	movt	r6, #16384
.Ltmp6:
	@DEBUG_VALUE: FMC_GetXOMState:ret <- undef
	@DEBUG_VALUE: FMC_GetXOMState:u32XomNum <- $r0
	.loc	2 384 26 is_stmt 1              @ Library/StdDriver/src/fmc.c:384:26
	ldr	r3, [r6, #32]
	movs	r4, #1
	.loc	2 384 50 is_stmt 0              @ Library/StdDriver/src/fmc.c:384:50
	lsl.w	r5, r4, r0
	.loc	2 384 43                        @ Library/StdDriver/src/fmc.c:384:43
	ands	r5, r3
	mov	r3, r0
.Ltmp7:
	@DEBUG_VALUE: FMC_GetXOMState:u32XomNum <- $r3
	.loc	2 384 65                        @ Library/StdDriver/src/fmc.c:384:65
	lsrs.w	r0, r5, r0
.Ltmp8:
	@DEBUG_VALUE: FMC_ConfigXOM:u32XomNum <- [DW_OP_LLVM_entry_value 1] $r0
	@DEBUG_VALUE: FMC_ConfigXOM:ret <- $r0
	@DEBUG_VALUE: FMC_GetXOMState:u32act <- $r0
	@DEBUG_VALUE: FMC_GetXOMState:ret <- $r0
	.loc	2 130 1 is_stmt 1               @ Library/StdDriver/src/fmc.c:130:1
	it	ne
	.loc	2 130 1 epilogue_begin is_stmt 0 @ Library/StdDriver/src/fmc.c:130:1
	popne	{r4, r5, r6, pc}
.Ltmp9:
.LBB1_3:
	@DEBUG_VALUE: FMC_ConfigXOM:ret <- $r0
	@DEBUG_VALUE: FMC_ConfigXOM:u32XomNum <- [DW_OP_LLVM_entry_value 1] $r0
	@DEBUG_VALUE: FMC_ConfigXOM:u8XomPage <- $r2
	@DEBUG_VALUE: FMC_ConfigXOM:u32XomBase <- $r1
	@DEBUG_VALUE: FMC_ConfigXOM:u8XomPage <- $r2
	.loc	2 0 1                           @ Library/StdDriver/src/fmc.c:0:1
	movs	r0, #33
.Ltmp10:
	.loc	2 73 17 is_stmt 1               @ Library/StdDriver/src/fmc.c:73:17
	str	r0, [r6, #-180]
	mov.w	r0, #2097152
	.loc	2 74 33                         @ Library/StdDriver/src/fmc.c:74:33
	orr.w	r0, r0, r3, lsl #4
	.loc	2 77 12                         @ Library/StdDriver/src/fmc.c:77:12
	movw	lr, :lower16:SystemCoreClock
	.loc	2 74 18                         @ Library/StdDriver/src/fmc.c:74:18
	str	r0, [r6, #-188]
	.loc	2 75 17                         @ Library/StdDriver/src/fmc.c:75:17
	str	r1, [r6, #-184]
	.loc	2 76 17                         @ Library/StdDriver/src/fmc.c:76:17
	str	r4, [r6, #-176]
	.loc	2 77 12                         @ Library/StdDriver/src/fmc.c:77:12
	movt	lr, :upper16:SystemCoreClock
	ldr.w	r0, [lr]
	movw	r1, #52429
.Ltmp11:
	@DEBUG_VALUE: FMC_ConfigXOM:u32XomBase <- [DW_OP_LLVM_entry_value 1] $r1
	.loc	2 0 12 is_stmt 0                @ Library/StdDriver/src/fmc.c:0:12
	movt	r1, #52428
	.loc	2 77 12                         @ Library/StdDriver/src/fmc.c:77:12
	umull	r0, r4, r0, r1
	.loc	2 74 46 is_stmt 1               @ Library/StdDriver/src/fmc.c:74:46
	lsls	r0, r3, #4
	mvn	r3, #1
	.loc	2 77 12                         @ Library/StdDriver/src/fmc.c:77:12
	and.w	r4, r3, r4, lsr #2
.Ltmp12:
	@DEBUG_VALUE: FMC_ConfigXOM:tout <- $r4
	.p2align	2
.LBB1_4:                                @ =>This Inner Loop Header: Depth=1
	@DEBUG_VALUE: FMC_ConfigXOM:tout <- $r4
	@DEBUG_VALUE: FMC_ConfigXOM:u32XomBase <- [DW_OP_LLVM_entry_value 1] $r1
	@DEBUG_VALUE: FMC_ConfigXOM:u32XomNum <- [DW_OP_LLVM_entry_value 1] $r0
	@DEBUG_VALUE: FMC_ConfigXOM:u8XomPage <- $r2
	@DEBUG_VALUE: FMC_ConfigXOM:tout <- [DW_OP_constu 1, DW_OP_minus, DW_OP_stack_value] $r4
	.loc	2 78 25                         @ Library/StdDriver/src/fmc.c:78:25
	cmp	r4, #0
	beq.w	.LBB1_40
.Ltmp13:
@ %bb.5:                                @   in Loop: Header=BB1_4 Depth=1
	@DEBUG_VALUE: FMC_ConfigXOM:tout <- [DW_OP_constu 1, DW_OP_minus, DW_OP_stack_value] $r4
	@DEBUG_VALUE: FMC_ConfigXOM:u32XomBase <- [DW_OP_LLVM_entry_value 1] $r1
	@DEBUG_VALUE: FMC_ConfigXOM:u32XomNum <- [DW_OP_LLVM_entry_value 1] $r0
	@DEBUG_VALUE: FMC_ConfigXOM:u8XomPage <- $r2
	@DEBUG_VALUE: FMC_ConfigXOM:tout <- [DW_OP_constu 1, DW_OP_minus, DW_OP_stack_value] $r4
	.loc	2 78 34 is_stmt 0               @ Library/StdDriver/src/fmc.c:78:34
	ldr	r3, [r6]
	.loc	2 78 5                          @ Library/StdDriver/src/fmc.c:78:5
	lsls	r3, r3, #31
	beq	.LBB1_12
.Ltmp14:
@ %bb.6:                                @   in Loop: Header=BB1_4 Depth=1
	@DEBUG_VALUE: FMC_ConfigXOM:tout <- [DW_OP_constu 1, DW_OP_minus, DW_OP_stack_value] $r4
	@DEBUG_VALUE: FMC_ConfigXOM:u32XomBase <- [DW_OP_LLVM_entry_value 1] $r1
	@DEBUG_VALUE: FMC_ConfigXOM:u32XomNum <- [DW_OP_LLVM_entry_value 1] $r0
	@DEBUG_VALUE: FMC_ConfigXOM:u8XomPage <- $r2
	@DEBUG_VALUE: FMC_ConfigXOM:tout <- [DW_OP_constu 2, DW_OP_minus, DW_OP_stack_value] $r4
	.loc	2 78 34                         @ Library/StdDriver/src/fmc.c:78:34
	ldr	r3, [r6]
	.loc	2 78 5                          @ Library/StdDriver/src/fmc.c:78:5
	lsls	r3, r3, #31
	beq	.LBB1_11
.Ltmp15:
@ %bb.7:                                @   in Loop: Header=BB1_4 Depth=1
	@DEBUG_VALUE: FMC_ConfigXOM:tout <- [DW_OP_constu 2, DW_OP_minus, DW_OP_stack_value] $r4
	@DEBUG_VALUE: FMC_ConfigXOM:u32XomBase <- [DW_OP_LLVM_entry_value 1] $r1
	@DEBUG_VALUE: FMC_ConfigXOM:u32XomNum <- [DW_OP_LLVM_entry_value 1] $r0
	@DEBUG_VALUE: FMC_ConfigXOM:u8XomPage <- $r2
	@DEBUG_VALUE: FMC_ConfigXOM:tout <- [DW_OP_constu 2, DW_OP_minus, DW_OP_constu 1, DW_OP_minus, DW_OP_stack_value] $r4
	.loc	2 78 25                         @ Library/StdDriver/src/fmc.c:78:25
	cmp	r4, #2
	beq.w	.LBB1_40
.Ltmp16:
@ %bb.8:                                @   in Loop: Header=BB1_4 Depth=1
	@DEBUG_VALUE: FMC_ConfigXOM:tout <- [DW_OP_constu 2, DW_OP_minus, DW_OP_constu 1, DW_OP_minus, DW_OP_stack_value] $r4
	@DEBUG_VALUE: FMC_ConfigXOM:u32XomBase <- [DW_OP_LLVM_entry_value 1] $r1
	@DEBUG_VALUE: FMC_ConfigXOM:u32XomNum <- [DW_OP_LLVM_entry_value 1] $r0
	@DEBUG_VALUE: FMC_ConfigXOM:u8XomPage <- $r2
	@DEBUG_VALUE: FMC_ConfigXOM:tout <- [DW_OP_constu 3, DW_OP_minus, DW_OP_stack_value] $r4
	.loc	2 78 34                         @ Library/StdDriver/src/fmc.c:78:34
	ldr	r3, [r6]
	.loc	2 78 5                          @ Library/StdDriver/src/fmc.c:78:5
	lsls	r3, r3, #31
	beq	.LBB1_22
.Ltmp17:
@ %bb.9:                                @   in Loop: Header=BB1_4 Depth=1
	@DEBUG_VALUE: FMC_ConfigXOM:tout <- [DW_OP_constu 3, DW_OP_minus, DW_OP_stack_value] $r4
	@DEBUG_VALUE: FMC_ConfigXOM:u32XomBase <- [DW_OP_LLVM_entry_value 1] $r1
	@DEBUG_VALUE: FMC_ConfigXOM:u32XomNum <- [DW_OP_LLVM_entry_value 1] $r0
	@DEBUG_VALUE: FMC_ConfigXOM:u8XomPage <- $r2
	@DEBUG_VALUE: FMC_ConfigXOM:tout <- [DW_OP_constu 3, DW_OP_minus, DW_OP_constu 1, DW_OP_minus, DW_OP_stack_value] $r4
	.loc	2 78 34                         @ Library/StdDriver/src/fmc.c:78:34
	ldr	r3, [r6]
	.loc	2 78 17                         @ Library/StdDriver/src/fmc.c:78:17
	subs	r4, #4
.Ltmp18:
	@DEBUG_VALUE: FMC_ConfigXOM:tout <- $r4
	.loc	2 78 5                          @ Library/StdDriver/src/fmc.c:78:5
	lsls	r3, r3, #31
	bne	.LBB1_4
.Ltmp19:
@ %bb.10:
	@DEBUG_VALUE: FMC_ConfigXOM:tout <- $r4
	@DEBUG_VALUE: FMC_ConfigXOM:u32XomBase <- [DW_OP_LLVM_entry_value 1] $r1
	@DEBUG_VALUE: FMC_ConfigXOM:u32XomNum <- [DW_OP_LLVM_entry_value 1] $r0
	@DEBUG_VALUE: FMC_ConfigXOM:u8XomPage <- $r2
	.loc	2 79 14 is_stmt 1               @ Library/StdDriver/src/fmc.c:79:14
	adds	r4, #1
.Ltmp20:
	.loc	2 79 9 is_stmt 0                @ Library/StdDriver/src/fmc.c:79:9
	cmp	r4, #1
	bne	.LBB1_13
	b	.LBB1_40
.Ltmp21:
.LBB1_11:
	@DEBUG_VALUE: FMC_ConfigXOM:tout <- [DW_OP_constu 2, DW_OP_minus, DW_OP_stack_value] $r4
	@DEBUG_VALUE: FMC_ConfigXOM:u32XomBase <- [DW_OP_LLVM_entry_value 1] $r1
	@DEBUG_VALUE: FMC_ConfigXOM:u32XomNum <- [DW_OP_LLVM_entry_value 1] $r0
	@DEBUG_VALUE: FMC_ConfigXOM:u8XomPage <- $r2
	.loc	2 79 14                         @ Library/StdDriver/src/fmc.c:79:14
	subs	r4, #1
.Ltmp22:
.LBB1_12:
	@DEBUG_VALUE: FMC_ConfigXOM:u32XomBase <- [DW_OP_LLVM_entry_value 1] $r1
	@DEBUG_VALUE: FMC_ConfigXOM:u32XomNum <- [DW_OP_LLVM_entry_value 1] $r0
	@DEBUG_VALUE: FMC_ConfigXOM:u8XomPage <- $r2
	.loc	2 79 9                          @ Library/StdDriver/src/fmc.c:79:9
	cmp	r4, #1
	beq	.LBB1_40
.Ltmp23:
.LBB1_13:
	@DEBUG_VALUE: FMC_ConfigXOM:u32XomBase <- [DW_OP_LLVM_entry_value 1] $r1
	@DEBUG_VALUE: FMC_ConfigXOM:u32XomNum <- [DW_OP_LLVM_entry_value 1] $r0
	@DEBUG_VALUE: FMC_ConfigXOM:u8XomPage <- $r2
	.loc	2 85 14 is_stmt 1               @ Library/StdDriver/src/fmc.c:85:14
	ldr	r3, [r6, #-128]
.Ltmp24:
	.loc	2 85 9 is_stmt 0                @ Library/StdDriver/src/fmc.c:85:9
	lsls	r3, r3, #25
	bmi	.LBB1_39
.Ltmp25:
@ %bb.14:
	@DEBUG_VALUE: FMC_ConfigXOM:u32XomBase <- [DW_OP_LLVM_entry_value 1] $r1
	@DEBUG_VALUE: FMC_ConfigXOM:u32XomNum <- [DW_OP_LLVM_entry_value 1] $r0
	@DEBUG_VALUE: FMC_ConfigXOM:u8XomPage <- $r2
	.loc	2 0 9                           @ Library/StdDriver/src/fmc.c:0:9
	movs	r4, #4
	movt	r4, #32
	movs	r3, #33
	.loc	2 92 17 is_stmt 1               @ Library/StdDriver/src/fmc.c:92:17
	str	r3, [r6, #-180]
	.loc	2 93 33                         @ Library/StdDriver/src/fmc.c:93:33
	orr.w	r3, r0, r4
	.loc	2 93 18 is_stmt 0               @ Library/StdDriver/src/fmc.c:93:18
	str	r3, [r6, #-188]
	.loc	2 94 17 is_stmt 1               @ Library/StdDriver/src/fmc.c:94:17
	str	r2, [r6, #-184]
	movs	r2, #1
.Ltmp26:
	.loc	2 95 17                         @ Library/StdDriver/src/fmc.c:95:17
	str	r2, [r6, #-176]
	.loc	2 96 12                         @ Library/StdDriver/src/fmc.c:96:12
	ldr.w	r2, [lr]
	umull	r2, r3, r2, r1
	mvn	r2, #1
	and.w	r2, r2, r3, lsr #2
.Ltmp27:
	@DEBUG_VALUE: FMC_ConfigXOM:tout <- $r2
	.p2align	2
.LBB1_15:                               @ =>This Inner Loop Header: Depth=1
	@DEBUG_VALUE: FMC_ConfigXOM:tout <- $r2
	@DEBUG_VALUE: FMC_ConfigXOM:u32XomBase <- [DW_OP_LLVM_entry_value 1] $r1
	@DEBUG_VALUE: FMC_ConfigXOM:u32XomNum <- [DW_OP_LLVM_entry_value 1] $r0
	@DEBUG_VALUE: FMC_ConfigXOM:tout <- [DW_OP_constu 1, DW_OP_minus, DW_OP_stack_value] $r2
	.loc	2 97 25                         @ Library/StdDriver/src/fmc.c:97:25
	cmp	r2, #0
	beq	.LBB1_40
.Ltmp28:
@ %bb.16:                               @   in Loop: Header=BB1_15 Depth=1
	@DEBUG_VALUE: FMC_ConfigXOM:tout <- [DW_OP_constu 1, DW_OP_minus, DW_OP_stack_value] $r2
	@DEBUG_VALUE: FMC_ConfigXOM:u32XomBase <- [DW_OP_LLVM_entry_value 1] $r1
	@DEBUG_VALUE: FMC_ConfigXOM:u32XomNum <- [DW_OP_LLVM_entry_value 1] $r0
	@DEBUG_VALUE: FMC_ConfigXOM:tout <- [DW_OP_constu 1, DW_OP_minus, DW_OP_stack_value] $r2
	.loc	2 97 34 is_stmt 0               @ Library/StdDriver/src/fmc.c:97:34
	ldr	r3, [r6]
	.loc	2 97 5                          @ Library/StdDriver/src/fmc.c:97:5
	lsls	r3, r3, #31
	beq	.LBB1_25
.Ltmp29:
@ %bb.17:                               @   in Loop: Header=BB1_15 Depth=1
	@DEBUG_VALUE: FMC_ConfigXOM:tout <- [DW_OP_constu 1, DW_OP_minus, DW_OP_stack_value] $r2
	@DEBUG_VALUE: FMC_ConfigXOM:u32XomBase <- [DW_OP_LLVM_entry_value 1] $r1
	@DEBUG_VALUE: FMC_ConfigXOM:u32XomNum <- [DW_OP_LLVM_entry_value 1] $r0
	@DEBUG_VALUE: FMC_ConfigXOM:tout <- [DW_OP_constu 2, DW_OP_minus, DW_OP_stack_value] $r2
	.loc	2 97 34                         @ Library/StdDriver/src/fmc.c:97:34
	ldr	r3, [r6]
	.loc	2 97 5                          @ Library/StdDriver/src/fmc.c:97:5
	lsls	r3, r3, #31
	beq	.LBB1_23
.Ltmp30:
@ %bb.18:                               @   in Loop: Header=BB1_15 Depth=1
	@DEBUG_VALUE: FMC_ConfigXOM:tout <- [DW_OP_constu 2, DW_OP_minus, DW_OP_stack_value] $r2
	@DEBUG_VALUE: FMC_ConfigXOM:u32XomBase <- [DW_OP_LLVM_entry_value 1] $r1
	@DEBUG_VALUE: FMC_ConfigXOM:u32XomNum <- [DW_OP_LLVM_entry_value 1] $r0
	@DEBUG_VALUE: FMC_ConfigXOM:tout <- [DW_OP_constu 2, DW_OP_minus, DW_OP_constu 1, DW_OP_minus, DW_OP_stack_value] $r2
	.loc	2 97 25                         @ Library/StdDriver/src/fmc.c:97:25
	cmp	r2, #2
	beq	.LBB1_40
.Ltmp31:
@ %bb.19:                               @   in Loop: Header=BB1_15 Depth=1
	@DEBUG_VALUE: FMC_ConfigXOM:tout <- [DW_OP_constu 2, DW_OP_minus, DW_OP_constu 1, DW_OP_minus, DW_OP_stack_value] $r2
	@DEBUG_VALUE: FMC_ConfigXOM:u32XomBase <- [DW_OP_LLVM_entry_value 1] $r1
	@DEBUG_VALUE: FMC_ConfigXOM:u32XomNum <- [DW_OP_LLVM_entry_value 1] $r0
	@DEBUG_VALUE: FMC_ConfigXOM:tout <- [DW_OP_constu 3, DW_OP_minus, DW_OP_stack_value] $r2
	.loc	2 97 34                         @ Library/StdDriver/src/fmc.c:97:34
	ldr	r3, [r6]
	.loc	2 97 5                          @ Library/StdDriver/src/fmc.c:97:5
	lsls	r3, r3, #31
	beq	.LBB1_24
.Ltmp32:
@ %bb.20:                               @   in Loop: Header=BB1_15 Depth=1
	@DEBUG_VALUE: FMC_ConfigXOM:tout <- [DW_OP_constu 3, DW_OP_minus, DW_OP_stack_value] $r2
	@DEBUG_VALUE: FMC_ConfigXOM:u32XomBase <- [DW_OP_LLVM_entry_value 1] $r1
	@DEBUG_VALUE: FMC_ConfigXOM:u32XomNum <- [DW_OP_LLVM_entry_value 1] $r0
	@DEBUG_VALUE: FMC_ConfigXOM:tout <- [DW_OP_constu 3, DW_OP_minus, DW_OP_constu 1, DW_OP_minus, DW_OP_stack_value] $r2
	.loc	2 97 34                         @ Library/StdDriver/src/fmc.c:97:34
	ldr	r3, [r6]
	.loc	2 97 17                         @ Library/StdDriver/src/fmc.c:97:17
	subs	r2, #4
.Ltmp33:
	@DEBUG_VALUE: FMC_ConfigXOM:tout <- $r2
	.loc	2 97 5                          @ Library/StdDriver/src/fmc.c:97:5
	lsls	r3, r3, #31
	bne	.LBB1_15
.Ltmp34:
@ %bb.21:
	@DEBUG_VALUE: FMC_ConfigXOM:tout <- $r2
	@DEBUG_VALUE: FMC_ConfigXOM:u32XomBase <- [DW_OP_LLVM_entry_value 1] $r1
	@DEBUG_VALUE: FMC_ConfigXOM:u32XomNum <- [DW_OP_LLVM_entry_value 1] $r0
	.loc	2 98 14 is_stmt 1               @ Library/StdDriver/src/fmc.c:98:14
	adds	r2, #1
.Ltmp35:
	.loc	2 0 14 is_stmt 0                @ Library/StdDriver/src/fmc.c:0:14
	b	.LBB1_25
.Ltmp36:
.LBB1_22:
	@DEBUG_VALUE: FMC_ConfigXOM:tout <- [DW_OP_constu 3, DW_OP_minus, DW_OP_stack_value] $r4
	@DEBUG_VALUE: FMC_ConfigXOM:u32XomBase <- [DW_OP_LLVM_entry_value 1] $r1
	@DEBUG_VALUE: FMC_ConfigXOM:u32XomNum <- [DW_OP_LLVM_entry_value 1] $r0
	@DEBUG_VALUE: FMC_ConfigXOM:u8XomPage <- $r2
	.loc	2 79 14 is_stmt 1               @ Library/StdDriver/src/fmc.c:79:14
	subs	r4, #2
.Ltmp37:
	.loc	2 79 9 is_stmt 0                @ Library/StdDriver/src/fmc.c:79:9
	cmp	r4, #1
	bne	.LBB1_13
	b	.LBB1_40
.Ltmp38:
.LBB1_23:
	@DEBUG_VALUE: FMC_ConfigXOM:tout <- [DW_OP_constu 2, DW_OP_minus, DW_OP_stack_value] $r2
	@DEBUG_VALUE: FMC_ConfigXOM:u32XomBase <- [DW_OP_LLVM_entry_value 1] $r1
	@DEBUG_VALUE: FMC_ConfigXOM:u32XomNum <- [DW_OP_LLVM_entry_value 1] $r0
	.loc	2 98 14 is_stmt 1               @ Library/StdDriver/src/fmc.c:98:14
	subs	r2, #1
.Ltmp39:
	.loc	2 0 14 is_stmt 0                @ Library/StdDriver/src/fmc.c:0:14
	b	.LBB1_25
.Ltmp40:
.LBB1_24:
	@DEBUG_VALUE: FMC_ConfigXOM:tout <- [DW_OP_constu 3, DW_OP_minus, DW_OP_stack_value] $r2
	@DEBUG_VALUE: FMC_ConfigXOM:u32XomBase <- [DW_OP_LLVM_entry_value 1] $r1
	@DEBUG_VALUE: FMC_ConfigXOM:u32XomNum <- [DW_OP_LLVM_entry_value 1] $r0
	.loc	2 98 14                         @ Library/StdDriver/src/fmc.c:98:14
	subs	r2, #2
.Ltmp41:
.LBB1_25:
	@DEBUG_VALUE: FMC_ConfigXOM:u32XomBase <- [DW_OP_LLVM_entry_value 1] $r1
	@DEBUG_VALUE: FMC_ConfigXOM:u32XomNum <- [DW_OP_LLVM_entry_value 1] $r0
	.loc	2 98 9                          @ Library/StdDriver/src/fmc.c:98:9
	cmp	r2, #1
	beq	.LBB1_40
.Ltmp42:
@ %bb.26:
	@DEBUG_VALUE: FMC_ConfigXOM:u32XomBase <- [DW_OP_LLVM_entry_value 1] $r1
	@DEBUG_VALUE: FMC_ConfigXOM:u32XomNum <- [DW_OP_LLVM_entry_value 1] $r0
	.loc	2 104 13 is_stmt 1              @ Library/StdDriver/src/fmc.c:104:13
	ldr	r2, [r6, #-128]
.Ltmp43:
	.loc	2 104 8 is_stmt 0               @ Library/StdDriver/src/fmc.c:104:8
	lsls	r2, r2, #25
	bmi	.LBB1_39
.Ltmp44:
@ %bb.27:
	@DEBUG_VALUE: FMC_ConfigXOM:u32XomBase <- [DW_OP_LLVM_entry_value 1] $r1
	@DEBUG_VALUE: FMC_ConfigXOM:u32XomNum <- [DW_OP_LLVM_entry_value 1] $r0
	.loc	2 112 33 is_stmt 1              @ Library/StdDriver/src/fmc.c:112:33
	add	r0, r4
	movs	r2, #33
	adds	r0, #4
	.loc	2 111 17                        @ Library/StdDriver/src/fmc.c:111:17
	str	r2, [r6, #-180]
	.loc	2 112 18                        @ Library/StdDriver/src/fmc.c:112:18
	str	r0, [r6, #-188]
	movs	r0, #0
	.loc	2 113 17                        @ Library/StdDriver/src/fmc.c:113:17
	str	r0, [r6, #-184]
	movs	r0, #1
	.loc	2 114 17                        @ Library/StdDriver/src/fmc.c:114:17
	str	r0, [r6, #-176]
	.loc	2 115 12                        @ Library/StdDriver/src/fmc.c:115:12
	ldr.w	r0, [lr]
	umull	r0, r1, r0, r1
	mvn	r0, #1
	and.w	r0, r0, r1, lsr #2
.Ltmp45:
	@DEBUG_VALUE: FMC_ConfigXOM:tout <- $r0
.LBB1_28:                               @ =>This Inner Loop Header: Depth=1
	@DEBUG_VALUE: FMC_ConfigXOM:tout <- $r0
	@DEBUG_VALUE: FMC_ConfigXOM:u32XomBase <- [DW_OP_LLVM_entry_value 1] $r1
	@DEBUG_VALUE: FMC_ConfigXOM:u32XomNum <- [DW_OP_LLVM_entry_value 1] $r0
	@DEBUG_VALUE: FMC_ConfigXOM:tout <- [DW_OP_constu 1, DW_OP_minus, DW_OP_stack_value] $r0
	.loc	2 116 25                        @ Library/StdDriver/src/fmc.c:116:25
	cbz	r0, .LBB1_40
.Ltmp46:
@ %bb.29:                               @   in Loop: Header=BB1_28 Depth=1
	@DEBUG_VALUE: FMC_ConfigXOM:tout <- [DW_OP_constu 1, DW_OP_minus, DW_OP_stack_value] $r0
	@DEBUG_VALUE: FMC_ConfigXOM:u32XomBase <- [DW_OP_LLVM_entry_value 1] $r1
	@DEBUG_VALUE: FMC_ConfigXOM:u32XomNum <- [DW_OP_LLVM_entry_value 1] $r0
	@DEBUG_VALUE: FMC_ConfigXOM:tout <- [DW_OP_constu 1, DW_OP_minus, DW_OP_stack_value] $r0
	.loc	2 116 34 is_stmt 0              @ Library/StdDriver/src/fmc.c:116:34
	ldr	r1, [r6]
	.loc	2 116 5                         @ Library/StdDriver/src/fmc.c:116:5
	lsls	r1, r1, #31
	beq	.LBB1_37
.Ltmp47:
@ %bb.30:                               @   in Loop: Header=BB1_28 Depth=1
	@DEBUG_VALUE: FMC_ConfigXOM:tout <- [DW_OP_constu 1, DW_OP_minus, DW_OP_stack_value] $r0
	@DEBUG_VALUE: FMC_ConfigXOM:u32XomBase <- [DW_OP_LLVM_entry_value 1] $r1
	@DEBUG_VALUE: FMC_ConfigXOM:u32XomNum <- [DW_OP_LLVM_entry_value 1] $r0
	@DEBUG_VALUE: FMC_ConfigXOM:tout <- [DW_OP_constu 2, DW_OP_minus, DW_OP_stack_value] $r0
	.loc	2 116 34                        @ Library/StdDriver/src/fmc.c:116:34
	ldr	r1, [r6]
	.loc	2 116 5                         @ Library/StdDriver/src/fmc.c:116:5
	lsls	r1, r1, #31
	beq	.LBB1_35
.Ltmp48:
@ %bb.31:                               @   in Loop: Header=BB1_28 Depth=1
	@DEBUG_VALUE: FMC_ConfigXOM:tout <- [DW_OP_constu 2, DW_OP_minus, DW_OP_stack_value] $r0
	@DEBUG_VALUE: FMC_ConfigXOM:u32XomBase <- [DW_OP_LLVM_entry_value 1] $r1
	@DEBUG_VALUE: FMC_ConfigXOM:u32XomNum <- [DW_OP_LLVM_entry_value 1] $r0
	@DEBUG_VALUE: FMC_ConfigXOM:tout <- [DW_OP_constu 2, DW_OP_minus, DW_OP_constu 1, DW_OP_minus, DW_OP_stack_value] $r0
	.loc	2 116 25                        @ Library/StdDriver/src/fmc.c:116:25
	cmp	r0, #2
	beq	.LBB1_40
.Ltmp49:
@ %bb.32:                               @   in Loop: Header=BB1_28 Depth=1
	@DEBUG_VALUE: FMC_ConfigXOM:tout <- [DW_OP_constu 2, DW_OP_minus, DW_OP_constu 1, DW_OP_minus, DW_OP_stack_value] $r0
	@DEBUG_VALUE: FMC_ConfigXOM:u32XomBase <- [DW_OP_LLVM_entry_value 1] $r1
	@DEBUG_VALUE: FMC_ConfigXOM:u32XomNum <- [DW_OP_LLVM_entry_value 1] $r0
	@DEBUG_VALUE: FMC_ConfigXOM:tout <- [DW_OP_constu 3, DW_OP_minus, DW_OP_stack_value] $r0
	.loc	2 116 34                        @ Library/StdDriver/src/fmc.c:116:34
	ldr	r1, [r6]
	.loc	2 116 5                         @ Library/StdDriver/src/fmc.c:116:5
	lsls	r1, r1, #31
	beq	.LBB1_36
.Ltmp50:
@ %bb.33:                               @   in Loop: Header=BB1_28 Depth=1
	@DEBUG_VALUE: FMC_ConfigXOM:tout <- [DW_OP_constu 3, DW_OP_minus, DW_OP_stack_value] $r0
	@DEBUG_VALUE: FMC_ConfigXOM:u32XomBase <- [DW_OP_LLVM_entry_value 1] $r1
	@DEBUG_VALUE: FMC_ConfigXOM:u32XomNum <- [DW_OP_LLVM_entry_value 1] $r0
	@DEBUG_VALUE: FMC_ConfigXOM:tout <- [DW_OP_constu 3, DW_OP_minus, DW_OP_constu 1, DW_OP_minus, DW_OP_stack_value] $r0
	.loc	2 116 34                        @ Library/StdDriver/src/fmc.c:116:34
	ldr	r1, [r6]
	.loc	2 116 17                        @ Library/StdDriver/src/fmc.c:116:17
	subs	r0, #4
.Ltmp51:
	@DEBUG_VALUE: FMC_ConfigXOM:tout <- $r0
	.loc	2 116 5                         @ Library/StdDriver/src/fmc.c:116:5
	lsls	r1, r1, #31
	bne	.LBB1_28
.Ltmp52:
@ %bb.34:
	@DEBUG_VALUE: FMC_ConfigXOM:tout <- $r0
	@DEBUG_VALUE: FMC_ConfigXOM:u32XomBase <- [DW_OP_LLVM_entry_value 1] $r1
	@DEBUG_VALUE: FMC_ConfigXOM:u32XomNum <- [DW_OP_LLVM_entry_value 1] $r0
	.loc	2 117 14 is_stmt 1              @ Library/StdDriver/src/fmc.c:117:14
	adds	r0, #1
.Ltmp53:
	.loc	2 0 14 is_stmt 0                @ Library/StdDriver/src/fmc.c:0:14
	b	.LBB1_37
.Ltmp54:
.LBB1_35:
	@DEBUG_VALUE: FMC_ConfigXOM:tout <- [DW_OP_constu 2, DW_OP_minus, DW_OP_stack_value] $r0
	@DEBUG_VALUE: FMC_ConfigXOM:u32XomBase <- [DW_OP_LLVM_entry_value 1] $r1
	@DEBUG_VALUE: FMC_ConfigXOM:u32XomNum <- [DW_OP_LLVM_entry_value 1] $r0
	.loc	2 117 14                        @ Library/StdDriver/src/fmc.c:117:14
	subs	r0, #1
.Ltmp55:
	.loc	2 0 14                          @ Library/StdDriver/src/fmc.c:0:14
	b	.LBB1_37
.Ltmp56:
.LBB1_36:
	@DEBUG_VALUE: FMC_ConfigXOM:tout <- [DW_OP_constu 3, DW_OP_minus, DW_OP_stack_value] $r0
	@DEBUG_VALUE: FMC_ConfigXOM:u32XomBase <- [DW_OP_LLVM_entry_value 1] $r1
	@DEBUG_VALUE: FMC_ConfigXOM:u32XomNum <- [DW_OP_LLVM_entry_value 1] $r0
	.loc	2 117 14                        @ Library/StdDriver/src/fmc.c:117:14
	subs	r0, #2
.Ltmp57:
.LBB1_37:
	@DEBUG_VALUE: FMC_ConfigXOM:u32XomBase <- [DW_OP_LLVM_entry_value 1] $r1
	@DEBUG_VALUE: FMC_ConfigXOM:u32XomNum <- [DW_OP_LLVM_entry_value 1] $r0
	.loc	2 117 9                         @ Library/StdDriver/src/fmc.c:117:9
	cmp	r0, #1
	beq	.LBB1_40
.Ltmp58:
@ %bb.38:
	@DEBUG_VALUE: FMC_ConfigXOM:u32XomBase <- [DW_OP_LLVM_entry_value 1] $r1
	@DEBUG_VALUE: FMC_ConfigXOM:u32XomNum <- [DW_OP_LLVM_entry_value 1] $r0
	.loc	2 123 13 is_stmt 1              @ Library/StdDriver/src/fmc.c:123:13
	ldr	r0, [r6, #-128]
.Ltmp59:
	.loc	2 123 8 is_stmt 0               @ Library/StdDriver/src/fmc.c:123:8
	lsls	r0, r0, #25
	itt	pl
	movpl	r0, #0
	.loc	2 130 1 epilogue_begin is_stmt 1 @ Library/StdDriver/src/fmc.c:130:1
	poppl	{r4, r5, r6, pc}
.Ltmp60:
.LBB1_39:
	@DEBUG_VALUE: FMC_ConfigXOM:u32XomBase <- [DW_OP_LLVM_entry_value 1] $r1
	@DEBUG_VALUE: FMC_ConfigXOM:u32XomNum <- [DW_OP_LLVM_entry_value 1] $r0
	.loc	2 0 0 is_stmt 0                 @ Library/StdDriver/src/fmc.c:0:0
	ldr	r0, [r6, #-128]
	orr	r0, r0, #64
	str	r0, [r6, #-128]
.Ltmp61:
.LBB1_40:
	@DEBUG_VALUE: FMC_ConfigXOM:u32XomBase <- [DW_OP_LLVM_entry_value 1] $r1
	@DEBUG_VALUE: FMC_ConfigXOM:u32XomNum <- [DW_OP_LLVM_entry_value 1] $r0
	mov.w	r0, #-1
	str.w	r0, [r12]
	.loc	2 130 1 epilogue_begin          @ Library/StdDriver/src/fmc.c:130:1
	pop	{r4, r5, r6, pc}
.Ltmp62:
.Lfunc_end1:
	.size	FMC_ConfigXOM, .Lfunc_end1-FMC_ConfigXOM
	.cfi_endproc
	.cantunwind
	.fnend
                                        @ -- End function
	.section	.text.FMC_GetXOMState,"ax",%progbits
	.hidden	FMC_GetXOMState                 @ -- Begin function FMC_GetXOMState
	.globl	FMC_GetXOMState
	.p2align	2
	.type	FMC_GetXOMState,%function
	.code	16                              @ @FMC_GetXOMState
	.thumb_func
FMC_GetXOMState:
.Lfunc_begin2:
	.fnstart
	.cfi_startproc
@ %bb.0:
	@DEBUG_VALUE: FMC_GetXOMState:u32XomNum <- $r0
	@DEBUG_VALUE: FMC_GetXOMState:ret <- undef
	.loc	2 382 9 prologue_end is_stmt 1  @ Library/StdDriver/src/fmc.c:382:9
	cmp	r0, #3
	itt	hi
	mvnhi	r0, #1
.Ltmp63:
	@DEBUG_VALUE: FMC_GetXOMState:u32XomNum <- [DW_OP_LLVM_entry_value 1] $r0
	@DEBUG_VALUE: FMC_GetXOMState:ret <- $r0
	.loc	2 387 5                         @ Library/StdDriver/src/fmc.c:387:5
	bxhi	lr
.Ltmp64:
.LBB2_1:
	@DEBUG_VALUE: FMC_GetXOMState:ret <- $r0
	@DEBUG_VALUE: FMC_GetXOMState:u32XomNum <- [DW_OP_LLVM_entry_value 1] $r0
	.loc	2 0 5 is_stmt 0                 @ Library/StdDriver/src/fmc.c:0:5
	movw	r1, #49376
	movt	r1, #16384
.Ltmp65:
	.loc	2 384 26 is_stmt 1              @ Library/StdDriver/src/fmc.c:384:26
	ldr	r1, [r1]
	movs	r2, #1
	.loc	2 384 50 is_stmt 0              @ Library/StdDriver/src/fmc.c:384:50
	lsls	r2, r0
	.loc	2 384 43                        @ Library/StdDriver/src/fmc.c:384:43
	ands	r1, r2
	.loc	2 384 65                        @ Library/StdDriver/src/fmc.c:384:65
	lsr.w	r0, r1, r0
.Ltmp66:
	@DEBUG_VALUE: FMC_GetXOMState:u32act <- $r0
	@DEBUG_VALUE: FMC_GetXOMState:ret <- $r0
	@DEBUG_VALUE: FMC_GetXOMState:ret <- $r0
	.loc	2 387 5 is_stmt 1               @ Library/StdDriver/src/fmc.c:387:5
	bx	lr
.Ltmp67:
.Lfunc_end2:
	.size	FMC_GetXOMState, .Lfunc_end2-FMC_GetXOMState
	.cfi_endproc
	.cantunwind
	.fnend
                                        @ -- End function
	.section	.text.FMC_Erase,"ax",%progbits
	.hidden	FMC_Erase                       @ -- Begin function FMC_Erase
	.globl	FMC_Erase
	.p2align	2
	.type	FMC_Erase,%function
	.code	16                              @ @FMC_Erase
	.thumb_func
FMC_Erase:
.Lfunc_begin3:
	.fnstart
	.cfi_startproc
@ %bb.0:
	@DEBUG_VALUE: FMC_Erase:u32PageAddr <- $r0
	.loc	2 147 22 prologue_end           @ Library/StdDriver/src/fmc.c:147:22
	movw	r1, :lower16:g_FMC_i32ErrCode
	movw	r2, #49344
	movt	r1, :upper16:g_FMC_i32ErrCode
	movs	r3, #0
	movt	r2, #16384
	str	r3, [r1]
	movs	r3, #34
	.loc	2 149 9                         @ Library/StdDriver/src/fmc.c:149:9
	cmp.w	r0, #2097152
	.loc	2 0 0 is_stmt 0                 @ Library/StdDriver/src/fmc.c:0:0
	str	r3, [r2, #-180]
	.loc	2 149 9                         @ Library/StdDriver/src/fmc.c:149:9
	bne	.LBB3_8
.Ltmp68:
@ %bb.1:
	@DEBUG_VALUE: FMC_Erase:u32PageAddr <- $r0
	.loc	2 0 9                           @ Library/StdDriver/src/fmc.c:0:9
	mov.w	r0, #2097152
.Ltmp69:
	@DEBUG_VALUE: FMC_Erase:u32PageAddr <- [DW_OP_LLVM_entry_value 1] $r0
	.loc	2 191 18 is_stmt 1              @ Library/StdDriver/src/fmc.c:191:18
	str	r0, [r2, #-188]
	movw	r0, #43523
	movt	r0, #85
	.loc	2 192 17                        @ Library/StdDriver/src/fmc.c:192:17
	str	r0, [r2, #-184]
	movs	r0, #1
	.loc	2 193 17                        @ Library/StdDriver/src/fmc.c:193:17
	str	r0, [r2, #-176]
	.loc	2 195 12                        @ Library/StdDriver/src/fmc.c:195:12
	movw	r0, :lower16:SystemCoreClock
	movt	r0, :upper16:SystemCoreClock
	ldr	r0, [r0]
	movw	r3, #52429
	movt	r3, #52428
	umull	r0, r3, r0, r3
	mvn	r0, #3
	and.w	r0, r0, r3, lsr #1
.Ltmp70:
	@DEBUG_VALUE: FMC_Erase_SPROM:tout <- $r0
	.p2align	2
.LBB3_2:                                @ =>This Inner Loop Header: Depth=1
	@DEBUG_VALUE: FMC_Erase_SPROM:tout <- $r0
	@DEBUG_VALUE: FMC_Erase:u32PageAddr <- [DW_OP_LLVM_entry_value 1] $r0
	@DEBUG_VALUE: FMC_Erase_SPROM:tout <- [DW_OP_constu 1, DW_OP_minus, DW_OP_stack_value] $r0
	.loc	2 196 25                        @ Library/StdDriver/src/fmc.c:196:25
	cmp	r0, #0
	beq	.LBB3_22
.Ltmp71:
@ %bb.3:                                @   in Loop: Header=BB3_2 Depth=1
	@DEBUG_VALUE: FMC_Erase_SPROM:tout <- [DW_OP_constu 1, DW_OP_minus, DW_OP_stack_value] $r0
	@DEBUG_VALUE: FMC_Erase:u32PageAddr <- [DW_OP_LLVM_entry_value 1] $r0
	@DEBUG_VALUE: FMC_Erase_SPROM:tout <- [DW_OP_constu 1, DW_OP_minus, DW_OP_stack_value] $r0
	.loc	2 196 34 is_stmt 0              @ Library/StdDriver/src/fmc.c:196:34
	ldr	r3, [r2]
	.loc	2 196 5                         @ Library/StdDriver/src/fmc.c:196:5
	lsls	r3, r3, #31
	beq	.LBB3_16
.Ltmp72:
@ %bb.4:                                @   in Loop: Header=BB3_2 Depth=1
	@DEBUG_VALUE: FMC_Erase_SPROM:tout <- [DW_OP_constu 1, DW_OP_minus, DW_OP_stack_value] $r0
	@DEBUG_VALUE: FMC_Erase:u32PageAddr <- [DW_OP_LLVM_entry_value 1] $r0
	@DEBUG_VALUE: FMC_Erase_SPROM:tout <- [DW_OP_constu 2, DW_OP_minus, DW_OP_stack_value] $r0
	.loc	2 196 34                        @ Library/StdDriver/src/fmc.c:196:34
	ldr	r3, [r2]
	.loc	2 196 5                         @ Library/StdDriver/src/fmc.c:196:5
	lsls	r3, r3, #31
	beq	.LBB3_15
.Ltmp73:
@ %bb.5:                                @   in Loop: Header=BB3_2 Depth=1
	@DEBUG_VALUE: FMC_Erase_SPROM:tout <- [DW_OP_constu 2, DW_OP_minus, DW_OP_stack_value] $r0
	@DEBUG_VALUE: FMC_Erase:u32PageAddr <- [DW_OP_LLVM_entry_value 1] $r0
	@DEBUG_VALUE: FMC_Erase_SPROM:tout <- [DW_OP_constu 3, DW_OP_minus, DW_OP_stack_value] $r0
	.loc	2 196 34                        @ Library/StdDriver/src/fmc.c:196:34
	ldr	r3, [r2]
	.loc	2 196 5                         @ Library/StdDriver/src/fmc.c:196:5
	lsls	r3, r3, #31
	beq	.LBB3_23
.Ltmp74:
@ %bb.6:                                @   in Loop: Header=BB3_2 Depth=1
	@DEBUG_VALUE: FMC_Erase_SPROM:tout <- [DW_OP_constu 3, DW_OP_minus, DW_OP_stack_value] $r0
	@DEBUG_VALUE: FMC_Erase:u32PageAddr <- [DW_OP_LLVM_entry_value 1] $r0
	@DEBUG_VALUE: FMC_Erase_SPROM:tout <- [DW_OP_constu 3, DW_OP_minus, DW_OP_constu 1, DW_OP_minus, DW_OP_stack_value] $r0
	.loc	2 196 34                        @ Library/StdDriver/src/fmc.c:196:34
	ldr	r3, [r2]
	.loc	2 196 17                        @ Library/StdDriver/src/fmc.c:196:17
	subs	r0, #4
.Ltmp75:
	@DEBUG_VALUE: FMC_Erase_SPROM:tout <- $r0
	.loc	2 196 5                         @ Library/StdDriver/src/fmc.c:196:5
	lsls	r3, r3, #31
	bne	.LBB3_2
.Ltmp76:
@ %bb.7:
	@DEBUG_VALUE: FMC_Erase_SPROM:tout <- $r0
	@DEBUG_VALUE: FMC_Erase:u32PageAddr <- [DW_OP_LLVM_entry_value 1] $r0
	.loc	2 197 14 is_stmt 1              @ Library/StdDriver/src/fmc.c:197:14
	adds	r0, #1
.Ltmp77:
	.loc	2 197 9 is_stmt 0               @ Library/StdDriver/src/fmc.c:197:9
	cmp	r0, #1
	bne	.LBB3_17
	b	.LBB3_22
.Ltmp78:
.LBB3_8:
	@DEBUG_VALUE: FMC_Erase:u32PageAddr <- $r0
	.loc	2 155 18 is_stmt 1              @ Library/StdDriver/src/fmc.c:155:18
	str	r0, [r2, #-188]
	movs	r0, #1
.Ltmp79:
	@DEBUG_VALUE: FMC_Erase:u32PageAddr <- [DW_OP_LLVM_entry_value 1] $r0
	.loc	2 156 17                        @ Library/StdDriver/src/fmc.c:156:17
	str	r0, [r2, #-176]
	.loc	2 158 12                        @ Library/StdDriver/src/fmc.c:158:12
	movw	r0, :lower16:SystemCoreClock
	movt	r0, :upper16:SystemCoreClock
	ldr	r0, [r0]
	movw	r3, #52429
	movt	r3, #52428
	umull	r0, r3, r0, r3
	mvn	r0, #3
	and.w	r0, r0, r3, lsr #1
.Ltmp80:
	@DEBUG_VALUE: FMC_Erase:tout <- $r0
	.p2align	2
.LBB3_9:                                @ =>This Inner Loop Header: Depth=1
	@DEBUG_VALUE: FMC_Erase:tout <- $r0
	@DEBUG_VALUE: FMC_Erase:u32PageAddr <- [DW_OP_LLVM_entry_value 1] $r0
	@DEBUG_VALUE: FMC_Erase:tout <- [DW_OP_constu 1, DW_OP_minus, DW_OP_stack_value] $r0
	.loc	2 159 25                        @ Library/StdDriver/src/fmc.c:159:25
	cbz	r0, .LBB3_22
.Ltmp81:
@ %bb.10:                               @   in Loop: Header=BB3_9 Depth=1
	@DEBUG_VALUE: FMC_Erase:tout <- [DW_OP_constu 1, DW_OP_minus, DW_OP_stack_value] $r0
	@DEBUG_VALUE: FMC_Erase:u32PageAddr <- [DW_OP_LLVM_entry_value 1] $r0
	@DEBUG_VALUE: FMC_Erase:tout <- [DW_OP_constu 1, DW_OP_minus, DW_OP_stack_value] $r0
	.loc	2 159 34 is_stmt 0              @ Library/StdDriver/src/fmc.c:159:34
	ldr	r3, [r2]
	.loc	2 159 5                         @ Library/StdDriver/src/fmc.c:159:5
	lsls	r3, r3, #31
	beq	.LBB3_19
.Ltmp82:
@ %bb.11:                               @   in Loop: Header=BB3_9 Depth=1
	@DEBUG_VALUE: FMC_Erase:tout <- [DW_OP_constu 1, DW_OP_minus, DW_OP_stack_value] $r0
	@DEBUG_VALUE: FMC_Erase:u32PageAddr <- [DW_OP_LLVM_entry_value 1] $r0
	@DEBUG_VALUE: FMC_Erase:tout <- [DW_OP_constu 2, DW_OP_minus, DW_OP_stack_value] $r0
	.loc	2 159 34                        @ Library/StdDriver/src/fmc.c:159:34
	ldr	r3, [r2]
	.loc	2 159 5                         @ Library/StdDriver/src/fmc.c:159:5
	lsls	r3, r3, #31
	beq	.LBB3_18
.Ltmp83:
@ %bb.12:                               @   in Loop: Header=BB3_9 Depth=1
	@DEBUG_VALUE: FMC_Erase:tout <- [DW_OP_constu 2, DW_OP_minus, DW_OP_stack_value] $r0
	@DEBUG_VALUE: FMC_Erase:u32PageAddr <- [DW_OP_LLVM_entry_value 1] $r0
	@DEBUG_VALUE: FMC_Erase:tout <- [DW_OP_constu 3, DW_OP_minus, DW_OP_stack_value] $r0
	.loc	2 159 34                        @ Library/StdDriver/src/fmc.c:159:34
	ldr	r3, [r2]
	.loc	2 159 5                         @ Library/StdDriver/src/fmc.c:159:5
	lsls	r3, r3, #31
	beq	.LBB3_24
.Ltmp84:
@ %bb.13:                               @   in Loop: Header=BB3_9 Depth=1
	@DEBUG_VALUE: FMC_Erase:tout <- [DW_OP_constu 3, DW_OP_minus, DW_OP_stack_value] $r0
	@DEBUG_VALUE: FMC_Erase:u32PageAddr <- [DW_OP_LLVM_entry_value 1] $r0
	@DEBUG_VALUE: FMC_Erase:tout <- [DW_OP_constu 3, DW_OP_minus, DW_OP_constu 1, DW_OP_minus, DW_OP_stack_value] $r0
	.loc	2 159 34                        @ Library/StdDriver/src/fmc.c:159:34
	ldr	r3, [r2]
	.loc	2 159 17                        @ Library/StdDriver/src/fmc.c:159:17
	subs	r0, #4
.Ltmp85:
	@DEBUG_VALUE: FMC_Erase:tout <- $r0
	.loc	2 159 5                         @ Library/StdDriver/src/fmc.c:159:5
	lsls	r3, r3, #31
	bne	.LBB3_9
.Ltmp86:
@ %bb.14:
	@DEBUG_VALUE: FMC_Erase:tout <- $r0
	@DEBUG_VALUE: FMC_Erase:u32PageAddr <- [DW_OP_LLVM_entry_value 1] $r0
	.loc	2 160 14 is_stmt 1              @ Library/StdDriver/src/fmc.c:160:14
	adds	r0, #1
.Ltmp87:
	.loc	2 160 9 is_stmt 0               @ Library/StdDriver/src/fmc.c:160:9
	cmp	r0, #1
	bne	.LBB3_20
	b	.LBB3_22
.Ltmp88:
.LBB3_15:
	@DEBUG_VALUE: FMC_Erase_SPROM:tout <- [DW_OP_constu 2, DW_OP_minus, DW_OP_stack_value] $r0
	@DEBUG_VALUE: FMC_Erase:u32PageAddr <- [DW_OP_LLVM_entry_value 1] $r0
	.loc	2 197 14 is_stmt 1              @ Library/StdDriver/src/fmc.c:197:14
	subs	r0, #1
.Ltmp89:
.LBB3_16:
	@DEBUG_VALUE: FMC_Erase:u32PageAddr <- [DW_OP_LLVM_entry_value 1] $r0
	.loc	2 197 9 is_stmt 0               @ Library/StdDriver/src/fmc.c:197:9
	cmp	r0, #1
	beq	.LBB3_22
.Ltmp90:
.LBB3_17:
	@DEBUG_VALUE: FMC_Erase:u32PageAddr <- [DW_OP_LLVM_entry_value 1] $r0
	.loc	2 203 14 is_stmt 1              @ Library/StdDriver/src/fmc.c:203:14
	ldr	r0, [r2, #-192]
.Ltmp91:
	.loc	2 203 9 is_stmt 0               @ Library/StdDriver/src/fmc.c:203:9
	lsls	r0, r0, #25
	itt	pl
	movpl	r0, #0
.Ltmp92:
	.loc	2 173 1 is_stmt 1               @ Library/StdDriver/src/fmc.c:173:1
	bxpl	lr
	b	.LBB3_21
.Ltmp93:
.LBB3_18:
	@DEBUG_VALUE: FMC_Erase:tout <- [DW_OP_constu 2, DW_OP_minus, DW_OP_stack_value] $r0
	@DEBUG_VALUE: FMC_Erase:u32PageAddr <- [DW_OP_LLVM_entry_value 1] $r0
	.loc	2 160 14                        @ Library/StdDriver/src/fmc.c:160:14
	subs	r0, #1
.Ltmp94:
.LBB3_19:
	@DEBUG_VALUE: FMC_Erase:u32PageAddr <- [DW_OP_LLVM_entry_value 1] $r0
	.loc	2 160 9 is_stmt 0               @ Library/StdDriver/src/fmc.c:160:9
	cmp	r0, #1
	beq	.LBB3_22
.Ltmp95:
.LBB3_20:
	@DEBUG_VALUE: FMC_Erase:u32PageAddr <- [DW_OP_LLVM_entry_value 1] $r0
	.loc	2 166 14 is_stmt 1              @ Library/StdDriver/src/fmc.c:166:14
	ldr	r0, [r2, #-192]
.Ltmp96:
	.loc	2 166 9 is_stmt 0               @ Library/StdDriver/src/fmc.c:166:9
	lsls	r0, r0, #25
	itt	pl
	movpl	r0, #0
	.loc	2 173 1 is_stmt 1               @ Library/StdDriver/src/fmc.c:173:1
	bxpl	lr
.Ltmp97:
.LBB3_21:
	@DEBUG_VALUE: FMC_Erase:u32PageAddr <- [DW_OP_LLVM_entry_value 1] $r0
	.loc	2 0 0 is_stmt 0                 @ Library/StdDriver/src/fmc.c:0:0
	ldr	r0, [r2, #-192]
	orr	r0, r0, #64
	str	r0, [r2, #-192]
.Ltmp98:
.LBB3_22:
	@DEBUG_VALUE: FMC_Erase:u32PageAddr <- [DW_OP_LLVM_entry_value 1] $r0
	mov.w	r0, #-1
	str	r0, [r1]
	.loc	2 173 1                         @ Library/StdDriver/src/fmc.c:173:1
	bx	lr
.Ltmp99:
.LBB3_23:
	@DEBUG_VALUE: FMC_Erase_SPROM:tout <- [DW_OP_constu 3, DW_OP_minus, DW_OP_stack_value] $r0
	@DEBUG_VALUE: FMC_Erase:u32PageAddr <- [DW_OP_LLVM_entry_value 1] $r0
	.loc	2 197 14 is_stmt 1              @ Library/StdDriver/src/fmc.c:197:14
	subs	r0, #2
.Ltmp100:
	.loc	2 197 9 is_stmt 0               @ Library/StdDriver/src/fmc.c:197:9
	cmp	r0, #1
	bne	.LBB3_17
	b	.LBB3_22
.Ltmp101:
.LBB3_24:
	@DEBUG_VALUE: FMC_Erase:tout <- [DW_OP_constu 3, DW_OP_minus, DW_OP_stack_value] $r0
	@DEBUG_VALUE: FMC_Erase:u32PageAddr <- [DW_OP_LLVM_entry_value 1] $r0
	.loc	2 160 14 is_stmt 1              @ Library/StdDriver/src/fmc.c:160:14
	subs	r0, #2
.Ltmp102:
	.loc	2 160 9 is_stmt 0               @ Library/StdDriver/src/fmc.c:160:9
	cmp	r0, #1
	bne	.LBB3_20
	b	.LBB3_22
.Ltmp103:
.Lfunc_end3:
	.size	FMC_Erase, .Lfunc_end3-FMC_Erase
	.cfi_endproc
	.cantunwind
	.fnend
                                        @ -- End function
	.section	.text.FMC_Erase_SPROM,"ax",%progbits
	.hidden	FMC_Erase_SPROM                 @ -- Begin function FMC_Erase_SPROM
	.globl	FMC_Erase_SPROM
	.p2align	2
	.type	FMC_Erase_SPROM,%function
	.code	16                              @ @FMC_Erase_SPROM
	.thumb_func
FMC_Erase_SPROM:
.Lfunc_begin4:
	.fnstart
	.cfi_startproc
@ %bb.0:
	.loc	2 189 22 prologue_end is_stmt 1 @ Library/StdDriver/src/fmc.c:189:22
	movw	r1, :lower16:g_FMC_i32ErrCode
	movw	r0, #49344
	movt	r1, :upper16:g_FMC_i32ErrCode
	movs	r2, #0
	movt	r0, #16384
	str	r2, [r1]
	movs	r2, #34
	.loc	2 190 17                        @ Library/StdDriver/src/fmc.c:190:17
	str	r2, [r0, #-180]
	mov.w	r2, #2097152
	.loc	2 191 18                        @ Library/StdDriver/src/fmc.c:191:18
	str	r2, [r0, #-188]
	movw	r2, #43523
	movt	r2, #85
	.loc	2 192 17                        @ Library/StdDriver/src/fmc.c:192:17
	str	r2, [r0, #-184]
	movs	r2, #1
	.loc	2 193 17                        @ Library/StdDriver/src/fmc.c:193:17
	str	r2, [r0, #-176]
	.loc	2 195 12                        @ Library/StdDriver/src/fmc.c:195:12
	movw	r2, :lower16:SystemCoreClock
	movt	r2, :upper16:SystemCoreClock
	ldr	r2, [r2]
	movw	r3, #52429
	movt	r3, #52428
	umull	r2, r3, r2, r3
	mvn	r2, #3
	and.w	r2, r2, r3, lsr #1
.Ltmp104:
	@DEBUG_VALUE: FMC_Erase_SPROM:tout <- $r2
	.p2align	2
.LBB4_1:                                @ =>This Inner Loop Header: Depth=1
	@DEBUG_VALUE: FMC_Erase_SPROM:tout <- $r2
	@DEBUG_VALUE: FMC_Erase_SPROM:tout <- [DW_OP_constu 1, DW_OP_minus, DW_OP_stack_value] $r2
	.loc	2 196 25                        @ Library/StdDriver/src/fmc.c:196:25
	cbz	r2, .LBB4_11
.Ltmp105:
@ %bb.2:                                @   in Loop: Header=BB4_1 Depth=1
	@DEBUG_VALUE: FMC_Erase_SPROM:tout <- [DW_OP_constu 1, DW_OP_minus, DW_OP_stack_value] $r2
	@DEBUG_VALUE: FMC_Erase_SPROM:tout <- [DW_OP_constu 1, DW_OP_minus, DW_OP_stack_value] $r2
	.loc	2 196 34 is_stmt 0              @ Library/StdDriver/src/fmc.c:196:34
	ldr	r3, [r0]
	.loc	2 196 5                         @ Library/StdDriver/src/fmc.c:196:5
	lsls	r3, r3, #31
	beq	.LBB4_8
.Ltmp106:
@ %bb.3:                                @   in Loop: Header=BB4_1 Depth=1
	@DEBUG_VALUE: FMC_Erase_SPROM:tout <- [DW_OP_constu 1, DW_OP_minus, DW_OP_stack_value] $r2
	@DEBUG_VALUE: FMC_Erase_SPROM:tout <- [DW_OP_constu 2, DW_OP_minus, DW_OP_stack_value] $r2
	.loc	2 196 34                        @ Library/StdDriver/src/fmc.c:196:34
	ldr	r3, [r0]
	.loc	2 196 5                         @ Library/StdDriver/src/fmc.c:196:5
	lsls	r3, r3, #31
	beq	.LBB4_7
.Ltmp107:
@ %bb.4:                                @   in Loop: Header=BB4_1 Depth=1
	@DEBUG_VALUE: FMC_Erase_SPROM:tout <- [DW_OP_constu 2, DW_OP_minus, DW_OP_stack_value] $r2
	@DEBUG_VALUE: FMC_Erase_SPROM:tout <- [DW_OP_constu 3, DW_OP_minus, DW_OP_stack_value] $r2
	.loc	2 196 34                        @ Library/StdDriver/src/fmc.c:196:34
	ldr	r3, [r0]
	.loc	2 196 5                         @ Library/StdDriver/src/fmc.c:196:5
	lsls	r3, r3, #31
	beq	.LBB4_12
.Ltmp108:
@ %bb.5:                                @   in Loop: Header=BB4_1 Depth=1
	@DEBUG_VALUE: FMC_Erase_SPROM:tout <- [DW_OP_constu 3, DW_OP_minus, DW_OP_stack_value] $r2
	@DEBUG_VALUE: FMC_Erase_SPROM:tout <- [DW_OP_constu 3, DW_OP_minus, DW_OP_constu 1, DW_OP_minus, DW_OP_stack_value] $r2
	.loc	2 196 34                        @ Library/StdDriver/src/fmc.c:196:34
	ldr	r3, [r0]
	.loc	2 196 17                        @ Library/StdDriver/src/fmc.c:196:17
	subs	r2, #4
.Ltmp109:
	@DEBUG_VALUE: FMC_Erase_SPROM:tout <- $r2
	.loc	2 196 5                         @ Library/StdDriver/src/fmc.c:196:5
	lsls	r3, r3, #31
	bne	.LBB4_1
.Ltmp110:
@ %bb.6:
	@DEBUG_VALUE: FMC_Erase_SPROM:tout <- $r2
	.loc	2 197 14 is_stmt 1              @ Library/StdDriver/src/fmc.c:197:14
	adds	r2, #1
.Ltmp111:
	.loc	2 197 9 is_stmt 0               @ Library/StdDriver/src/fmc.c:197:9
	cmp	r2, #1
	bne	.LBB4_9
	b	.LBB4_11
.LBB4_7:
.Ltmp112:
	@DEBUG_VALUE: FMC_Erase_SPROM:tout <- [DW_OP_constu 2, DW_OP_minus, DW_OP_stack_value] $r2
	.loc	2 197 14                        @ Library/StdDriver/src/fmc.c:197:14
	subs	r2, #1
.Ltmp113:
.LBB4_8:
	.loc	2 197 9                         @ Library/StdDriver/src/fmc.c:197:9
	cmp	r2, #1
	beq	.LBB4_11
.LBB4_9:
.Ltmp114:
	.loc	2 203 14 is_stmt 1              @ Library/StdDriver/src/fmc.c:203:14
	ldr	r2, [r0, #-192]
.Ltmp115:
	.loc	2 203 9 is_stmt 0               @ Library/StdDriver/src/fmc.c:203:9
	lsls	r2, r2, #25
	itt	pl
	movpl	r0, #0
	.loc	2 210 1 is_stmt 1               @ Library/StdDriver/src/fmc.c:210:1
	bxpl	lr
.LBB4_10:
.Ltmp116:
	.loc	2 205 21                        @ Library/StdDriver/src/fmc.c:205:21
	ldr	r2, [r0, #-192]
	orr	r2, r2, #64
	str	r2, [r0, #-192]
.Ltmp117:
.LBB4_11:
	.loc	2 0 21 is_stmt 0                @ Library/StdDriver/src/fmc.c:0:21
	mov.w	r0, #-1
	str	r0, [r1]
	.loc	2 210 1 is_stmt 1               @ Library/StdDriver/src/fmc.c:210:1
	bx	lr
.LBB4_12:
.Ltmp118:
	@DEBUG_VALUE: FMC_Erase_SPROM:tout <- [DW_OP_constu 3, DW_OP_minus, DW_OP_stack_value] $r2
	.loc	2 197 14                        @ Library/StdDriver/src/fmc.c:197:14
	subs	r2, #2
.Ltmp119:
	.loc	2 197 9 is_stmt 0               @ Library/StdDriver/src/fmc.c:197:9
	cmp	r2, #1
	bne	.LBB4_9
	b	.LBB4_11
.Ltmp120:
.Lfunc_end4:
	.size	FMC_Erase_SPROM, .Lfunc_end4-FMC_Erase_SPROM
	.cfi_endproc
	.cantunwind
	.fnend
                                        @ -- End function
	.section	.text.FMC_Erase_Block,"ax",%progbits
	.hidden	FMC_Erase_Block                 @ -- Begin function FMC_Erase_Block
	.globl	FMC_Erase_Block
	.p2align	2
	.type	FMC_Erase_Block,%function
	.code	16                              @ @FMC_Erase_Block
	.thumb_func
FMC_Erase_Block:
.Lfunc_begin5:
	.fnstart
	.cfi_startproc
@ %bb.0:
	@DEBUG_VALUE: FMC_Erase_Block:u32BlockAddr <- $r0
	.loc	2 227 22 prologue_end is_stmt 1 @ Library/StdDriver/src/fmc.c:227:22
	movw	r1, :lower16:g_FMC_i32ErrCode
	movw	r2, #49344
	movt	r1, :upper16:g_FMC_i32ErrCode
	movs	r3, #0
	movt	r2, #16384
	str	r3, [r1]
	movs	r3, #37
	.loc	2 228 17                        @ Library/StdDriver/src/fmc.c:228:17
	str	r3, [r2, #-180]
	.loc	2 229 18                        @ Library/StdDriver/src/fmc.c:229:18
	str	r0, [r2, #-188]
	movs	r0, #1
.Ltmp121:
	@DEBUG_VALUE: FMC_Erase_Block:u32BlockAddr <- [DW_OP_LLVM_entry_value 1] $r0
	.loc	2 230 17                        @ Library/StdDriver/src/fmc.c:230:17
	str	r0, [r2, #-176]
	.loc	2 232 12                        @ Library/StdDriver/src/fmc.c:232:12
	movw	r0, :lower16:SystemCoreClock
	movt	r0, :upper16:SystemCoreClock
	ldr	r0, [r0]
	movw	r3, #52429
	movt	r3, #52428
	umull	r0, r3, r0, r3
	mvn	r0, #3
	and.w	r0, r0, r3, lsr #1
.Ltmp122:
	@DEBUG_VALUE: FMC_Erase_Block:tout <- $r0
	.p2align	2
.LBB5_1:                                @ =>This Inner Loop Header: Depth=1
	@DEBUG_VALUE: FMC_Erase_Block:tout <- $r0
	@DEBUG_VALUE: FMC_Erase_Block:u32BlockAddr <- [DW_OP_LLVM_entry_value 1] $r0
	@DEBUG_VALUE: FMC_Erase_Block:tout <- [DW_OP_constu 1, DW_OP_minus, DW_OP_stack_value] $r0
	.loc	2 233 25                        @ Library/StdDriver/src/fmc.c:233:25
	cbz	r0, .LBB5_11
.Ltmp123:
@ %bb.2:                                @   in Loop: Header=BB5_1 Depth=1
	@DEBUG_VALUE: FMC_Erase_Block:tout <- [DW_OP_constu 1, DW_OP_minus, DW_OP_stack_value] $r0
	@DEBUG_VALUE: FMC_Erase_Block:u32BlockAddr <- [DW_OP_LLVM_entry_value 1] $r0
	@DEBUG_VALUE: FMC_Erase_Block:tout <- [DW_OP_constu 1, DW_OP_minus, DW_OP_stack_value] $r0
	.loc	2 233 34 is_stmt 0              @ Library/StdDriver/src/fmc.c:233:34
	ldr	r3, [r2]
	.loc	2 233 5                         @ Library/StdDriver/src/fmc.c:233:5
	lsls	r3, r3, #31
	beq	.LBB5_8
.Ltmp124:
@ %bb.3:                                @   in Loop: Header=BB5_1 Depth=1
	@DEBUG_VALUE: FMC_Erase_Block:tout <- [DW_OP_constu 1, DW_OP_minus, DW_OP_stack_value] $r0
	@DEBUG_VALUE: FMC_Erase_Block:u32BlockAddr <- [DW_OP_LLVM_entry_value 1] $r0
	@DEBUG_VALUE: FMC_Erase_Block:tout <- [DW_OP_constu 2, DW_OP_minus, DW_OP_stack_value] $r0
	.loc	2 233 34                        @ Library/StdDriver/src/fmc.c:233:34
	ldr	r3, [r2]
	.loc	2 233 5                         @ Library/StdDriver/src/fmc.c:233:5
	lsls	r3, r3, #31
	beq	.LBB5_7
.Ltmp125:
@ %bb.4:                                @   in Loop: Header=BB5_1 Depth=1
	@DEBUG_VALUE: FMC_Erase_Block:tout <- [DW_OP_constu 2, DW_OP_minus, DW_OP_stack_value] $r0
	@DEBUG_VALUE: FMC_Erase_Block:u32BlockAddr <- [DW_OP_LLVM_entry_value 1] $r0
	@DEBUG_VALUE: FMC_Erase_Block:tout <- [DW_OP_constu 3, DW_OP_minus, DW_OP_stack_value] $r0
	.loc	2 233 34                        @ Library/StdDriver/src/fmc.c:233:34
	ldr	r3, [r2]
	.loc	2 233 5                         @ Library/StdDriver/src/fmc.c:233:5
	lsls	r3, r3, #31
	beq	.LBB5_12
.Ltmp126:
@ %bb.5:                                @   in Loop: Header=BB5_1 Depth=1
	@DEBUG_VALUE: FMC_Erase_Block:tout <- [DW_OP_constu 3, DW_OP_minus, DW_OP_stack_value] $r0
	@DEBUG_VALUE: FMC_Erase_Block:u32BlockAddr <- [DW_OP_LLVM_entry_value 1] $r0
	@DEBUG_VALUE: FMC_Erase_Block:tout <- [DW_OP_constu 3, DW_OP_minus, DW_OP_constu 1, DW_OP_minus, DW_OP_stack_value] $r0
	.loc	2 233 34                        @ Library/StdDriver/src/fmc.c:233:34
	ldr	r3, [r2]
	.loc	2 233 17                        @ Library/StdDriver/src/fmc.c:233:17
	subs	r0, #4
.Ltmp127:
	@DEBUG_VALUE: FMC_Erase_Block:tout <- $r0
	.loc	2 233 5                         @ Library/StdDriver/src/fmc.c:233:5
	lsls	r3, r3, #31
	bne	.LBB5_1
.Ltmp128:
@ %bb.6:
	@DEBUG_VALUE: FMC_Erase_Block:tout <- $r0
	@DEBUG_VALUE: FMC_Erase_Block:u32BlockAddr <- [DW_OP_LLVM_entry_value 1] $r0
	.loc	2 234 14 is_stmt 1              @ Library/StdDriver/src/fmc.c:234:14
	adds	r0, #1
.Ltmp129:
	.loc	2 234 9 is_stmt 0               @ Library/StdDriver/src/fmc.c:234:9
	cmp	r0, #1
	bne	.LBB5_9
	b	.LBB5_11
.Ltmp130:
.LBB5_7:
	@DEBUG_VALUE: FMC_Erase_Block:tout <- [DW_OP_constu 2, DW_OP_minus, DW_OP_stack_value] $r0
	@DEBUG_VALUE: FMC_Erase_Block:u32BlockAddr <- [DW_OP_LLVM_entry_value 1] $r0
	.loc	2 234 14                        @ Library/StdDriver/src/fmc.c:234:14
	subs	r0, #1
.Ltmp131:
.LBB5_8:
	@DEBUG_VALUE: FMC_Erase_Block:u32BlockAddr <- [DW_OP_LLVM_entry_value 1] $r0
	.loc	2 234 9                         @ Library/StdDriver/src/fmc.c:234:9
	cmp	r0, #1
	beq	.LBB5_11
.Ltmp132:
.LBB5_9:
	@DEBUG_VALUE: FMC_Erase_Block:u32BlockAddr <- [DW_OP_LLVM_entry_value 1] $r0
	.loc	2 240 14 is_stmt 1              @ Library/StdDriver/src/fmc.c:240:14
	ldr	r0, [r2, #-192]
.Ltmp133:
	.loc	2 240 9 is_stmt 0               @ Library/StdDriver/src/fmc.c:240:9
	lsls	r0, r0, #25
	itt	pl
	movpl	r0, #0
	.loc	2 247 1 is_stmt 1               @ Library/StdDriver/src/fmc.c:247:1
	bxpl	lr
.Ltmp134:
.LBB5_10:
	@DEBUG_VALUE: FMC_Erase_Block:u32BlockAddr <- [DW_OP_LLVM_entry_value 1] $r0
	.loc	2 242 21                        @ Library/StdDriver/src/fmc.c:242:21
	ldr	r0, [r2, #-192]
	orr	r0, r0, #64
	str	r0, [r2, #-192]
.Ltmp135:
.LBB5_11:
	@DEBUG_VALUE: FMC_Erase_Block:u32BlockAddr <- [DW_OP_LLVM_entry_value 1] $r0
	.loc	2 0 21 is_stmt 0                @ Library/StdDriver/src/fmc.c:0:21
	mov.w	r0, #-1
	str	r0, [r1]
	.loc	2 247 1 is_stmt 1               @ Library/StdDriver/src/fmc.c:247:1
	bx	lr
.Ltmp136:
.LBB5_12:
	@DEBUG_VALUE: FMC_Erase_Block:tout <- [DW_OP_constu 3, DW_OP_minus, DW_OP_stack_value] $r0
	@DEBUG_VALUE: FMC_Erase_Block:u32BlockAddr <- [DW_OP_LLVM_entry_value 1] $r0
	.loc	2 234 14                        @ Library/StdDriver/src/fmc.c:234:14
	subs	r0, #2
.Ltmp137:
	.loc	2 234 9 is_stmt 0               @ Library/StdDriver/src/fmc.c:234:9
	cmp	r0, #1
	bne	.LBB5_9
	b	.LBB5_11
.Ltmp138:
.Lfunc_end5:
	.size	FMC_Erase_Block, .Lfunc_end5-FMC_Erase_Block
	.cfi_endproc
	.cantunwind
	.fnend
                                        @ -- End function
	.section	.text.FMC_Erase_Bank,"ax",%progbits
	.hidden	FMC_Erase_Bank                  @ -- Begin function FMC_Erase_Bank
	.globl	FMC_Erase_Bank
	.p2align	2
	.type	FMC_Erase_Bank,%function
	.code	16                              @ @FMC_Erase_Bank
	.thumb_func
FMC_Erase_Bank:
.Lfunc_begin6:
	.fnstart
	.cfi_startproc
@ %bb.0:
	@DEBUG_VALUE: FMC_Erase_Bank:u32BankAddr <- $r0
	.loc	2 263 22 prologue_end is_stmt 1 @ Library/StdDriver/src/fmc.c:263:22
	movw	r1, :lower16:g_FMC_i32ErrCode
	movw	r2, #49344
	movt	r1, :upper16:g_FMC_i32ErrCode
	movs	r3, #0
	movt	r2, #16384
	str	r3, [r1]
	movs	r3, #35
	.loc	2 264 17                        @ Library/StdDriver/src/fmc.c:264:17
	str	r3, [r2, #-180]
	.loc	2 265 18                        @ Library/StdDriver/src/fmc.c:265:18
	str	r0, [r2, #-188]
	movs	r0, #1
.Ltmp139:
	@DEBUG_VALUE: FMC_Erase_Bank:u32BankAddr <- [DW_OP_LLVM_entry_value 1] $r0
	.loc	2 266 17                        @ Library/StdDriver/src/fmc.c:266:17
	str	r0, [r2, #-176]
	.loc	2 268 12                        @ Library/StdDriver/src/fmc.c:268:12
	movw	r0, :lower16:SystemCoreClock
	movt	r0, :upper16:SystemCoreClock
	ldr	r0, [r0]
	movw	r3, #52429
	movt	r3, #52428
	umull	r0, r3, r0, r3
	mvn	r0, #3
	and.w	r0, r0, r3, lsr #1
.Ltmp140:
	@DEBUG_VALUE: FMC_Erase_Bank:tout <- $r0
	.p2align	2
.LBB6_1:                                @ =>This Inner Loop Header: Depth=1
	@DEBUG_VALUE: FMC_Erase_Bank:tout <- $r0
	@DEBUG_VALUE: FMC_Erase_Bank:u32BankAddr <- [DW_OP_LLVM_entry_value 1] $r0
	@DEBUG_VALUE: FMC_Erase_Bank:tout <- [DW_OP_constu 1, DW_OP_minus, DW_OP_stack_value] $r0
	.loc	2 269 25                        @ Library/StdDriver/src/fmc.c:269:25
	cbz	r0, .LBB6_11
.Ltmp141:
@ %bb.2:                                @   in Loop: Header=BB6_1 Depth=1
	@DEBUG_VALUE: FMC_Erase_Bank:tout <- [DW_OP_constu 1, DW_OP_minus, DW_OP_stack_value] $r0
	@DEBUG_VALUE: FMC_Erase_Bank:u32BankAddr <- [DW_OP_LLVM_entry_value 1] $r0
	@DEBUG_VALUE: FMC_Erase_Bank:tout <- [DW_OP_constu 1, DW_OP_minus, DW_OP_stack_value] $r0
	.loc	2 269 34 is_stmt 0              @ Library/StdDriver/src/fmc.c:269:34
	ldr	r3, [r2]
	.loc	2 269 5                         @ Library/StdDriver/src/fmc.c:269:5
	lsls	r3, r3, #31
	beq	.LBB6_8
.Ltmp142:
@ %bb.3:                                @   in Loop: Header=BB6_1 Depth=1
	@DEBUG_VALUE: FMC_Erase_Bank:tout <- [DW_OP_constu 1, DW_OP_minus, DW_OP_stack_value] $r0
	@DEBUG_VALUE: FMC_Erase_Bank:u32BankAddr <- [DW_OP_LLVM_entry_value 1] $r0
	@DEBUG_VALUE: FMC_Erase_Bank:tout <- [DW_OP_constu 2, DW_OP_minus, DW_OP_stack_value] $r0
	.loc	2 269 34                        @ Library/StdDriver/src/fmc.c:269:34
	ldr	r3, [r2]
	.loc	2 269 5                         @ Library/StdDriver/src/fmc.c:269:5
	lsls	r3, r3, #31
	beq	.LBB6_7
.Ltmp143:
@ %bb.4:                                @   in Loop: Header=BB6_1 Depth=1
	@DEBUG_VALUE: FMC_Erase_Bank:tout <- [DW_OP_constu 2, DW_OP_minus, DW_OP_stack_value] $r0
	@DEBUG_VALUE: FMC_Erase_Bank:u32BankAddr <- [DW_OP_LLVM_entry_value 1] $r0
	@DEBUG_VALUE: FMC_Erase_Bank:tout <- [DW_OP_constu 3, DW_OP_minus, DW_OP_stack_value] $r0
	.loc	2 269 34                        @ Library/StdDriver/src/fmc.c:269:34
	ldr	r3, [r2]
	.loc	2 269 5                         @ Library/StdDriver/src/fmc.c:269:5
	lsls	r3, r3, #31
	beq	.LBB6_12
.Ltmp144:
@ %bb.5:                                @   in Loop: Header=BB6_1 Depth=1
	@DEBUG_VALUE: FMC_Erase_Bank:tout <- [DW_OP_constu 3, DW_OP_minus, DW_OP_stack_value] $r0
	@DEBUG_VALUE: FMC_Erase_Bank:u32BankAddr <- [DW_OP_LLVM_entry_value 1] $r0
	@DEBUG_VALUE: FMC_Erase_Bank:tout <- [DW_OP_constu 3, DW_OP_minus, DW_OP_constu 1, DW_OP_minus, DW_OP_stack_value] $r0
	.loc	2 269 34                        @ Library/StdDriver/src/fmc.c:269:34
	ldr	r3, [r2]
	.loc	2 269 17                        @ Library/StdDriver/src/fmc.c:269:17
	subs	r0, #4
.Ltmp145:
	@DEBUG_VALUE: FMC_Erase_Bank:tout <- $r0
	.loc	2 269 5                         @ Library/StdDriver/src/fmc.c:269:5
	lsls	r3, r3, #31
	bne	.LBB6_1
.Ltmp146:
@ %bb.6:
	@DEBUG_VALUE: FMC_Erase_Bank:tout <- $r0
	@DEBUG_VALUE: FMC_Erase_Bank:u32BankAddr <- [DW_OP_LLVM_entry_value 1] $r0
	.loc	2 270 14 is_stmt 1              @ Library/StdDriver/src/fmc.c:270:14
	adds	r0, #1
.Ltmp147:
	.loc	2 270 9 is_stmt 0               @ Library/StdDriver/src/fmc.c:270:9
	cmp	r0, #1
	bne	.LBB6_9
	b	.LBB6_11
.Ltmp148:
.LBB6_7:
	@DEBUG_VALUE: FMC_Erase_Bank:tout <- [DW_OP_constu 2, DW_OP_minus, DW_OP_stack_value] $r0
	@DEBUG_VALUE: FMC_Erase_Bank:u32BankAddr <- [DW_OP_LLVM_entry_value 1] $r0
	.loc	2 270 14                        @ Library/StdDriver/src/fmc.c:270:14
	subs	r0, #1
.Ltmp149:
.LBB6_8:
	@DEBUG_VALUE: FMC_Erase_Bank:u32BankAddr <- [DW_OP_LLVM_entry_value 1] $r0
	.loc	2 270 9                         @ Library/StdDriver/src/fmc.c:270:9
	cmp	r0, #1
	beq	.LBB6_11
.Ltmp150:
.LBB6_9:
	@DEBUG_VALUE: FMC_Erase_Bank:u32BankAddr <- [DW_OP_LLVM_entry_value 1] $r0
	.loc	2 276 14 is_stmt 1              @ Library/StdDriver/src/fmc.c:276:14
	ldr	r0, [r2, #-192]
.Ltmp151:
	.loc	2 276 9 is_stmt 0               @ Library/StdDriver/src/fmc.c:276:9
	lsls	r0, r0, #25
	itt	pl
	movpl	r0, #0
	.loc	2 283 1 is_stmt 1               @ Library/StdDriver/src/fmc.c:283:1
	bxpl	lr
.Ltmp152:
.LBB6_10:
	@DEBUG_VALUE: FMC_Erase_Bank:u32BankAddr <- [DW_OP_LLVM_entry_value 1] $r0
	.loc	2 278 21                        @ Library/StdDriver/src/fmc.c:278:21
	ldr	r0, [r2, #-192]
	orr	r0, r0, #64
	str	r0, [r2, #-192]
.Ltmp153:
.LBB6_11:
	@DEBUG_VALUE: FMC_Erase_Bank:u32BankAddr <- [DW_OP_LLVM_entry_value 1] $r0
	.loc	2 0 21 is_stmt 0                @ Library/StdDriver/src/fmc.c:0:21
	mov.w	r0, #-1
	str	r0, [r1]
	.loc	2 283 1 is_stmt 1               @ Library/StdDriver/src/fmc.c:283:1
	bx	lr
.Ltmp154:
.LBB6_12:
	@DEBUG_VALUE: FMC_Erase_Bank:tout <- [DW_OP_constu 3, DW_OP_minus, DW_OP_stack_value] $r0
	@DEBUG_VALUE: FMC_Erase_Bank:u32BankAddr <- [DW_OP_LLVM_entry_value 1] $r0
	.loc	2 270 14                        @ Library/StdDriver/src/fmc.c:270:14
	subs	r0, #2
.Ltmp155:
	.loc	2 270 9 is_stmt 0               @ Library/StdDriver/src/fmc.c:270:9
	cmp	r0, #1
	bne	.LBB6_9
	b	.LBB6_11
.Ltmp156:
.Lfunc_end6:
	.size	FMC_Erase_Bank, .Lfunc_end6-FMC_Erase_Bank
	.cfi_endproc
	.cantunwind
	.fnend
                                        @ -- End function
	.section	.text.FMC_EraseXOM,"ax",%progbits
	.hidden	FMC_EraseXOM                    @ -- Begin function FMC_EraseXOM
	.globl	FMC_EraseXOM
	.p2align	2
	.type	FMC_EraseXOM,%function
	.code	16                              @ @FMC_EraseXOM
	.thumb_func
FMC_EraseXOM:
.Lfunc_begin7:
	.fnstart
	.cfi_startproc
@ %bb.0:
	@DEBUG_VALUE: FMC_EraseXOM:u32XomNum <- $r0
	@DEBUG_VALUE: FMC_EraseXOM:err <- undef
	.loc	2 312 9 prologue_end is_stmt 1  @ Library/StdDriver/src/fmc.c:312:9
	cmp	r0, #3
	bhi	.LBB7_5
.Ltmp157:
@ %bb.1:
	@DEBUG_VALUE: FMC_EraseXOM:u32XomNum <- $r0
	.loc	2 0 9 is_stmt 0                 @ Library/StdDriver/src/fmc.c:0:9
	movw	r1, #49168
	movt	r1, #16384
.Ltmp158:
	@DEBUG_VALUE: FMC_GetXOMState:ret <- undef
	@DEBUG_VALUE: FMC_GetXOMState:u32XomNum <- $r0
	.loc	2 384 26 is_stmt 1              @ Library/StdDriver/src/fmc.c:384:26
	ldr.w	r2, [r1, #208]
	movs	r3, #1
	.loc	2 384 50 is_stmt 0              @ Library/StdDriver/src/fmc.c:384:50
	lsls	r3, r0
	.loc	2 384 43                        @ Library/StdDriver/src/fmc.c:384:43
	ands	r2, r3
	.loc	2 384 65                        @ Library/StdDriver/src/fmc.c:384:65
	lsrs	r2, r0
.Ltmp159:
	@DEBUG_VALUE: FMC_EraseXOM:i32Active <- $r2
	@DEBUG_VALUE: FMC_GetXOMState:u32act <- $r2
	@DEBUG_VALUE: FMC_GetXOMState:ret <- $r2
	.loc	2 316 12 is_stmt 1              @ Library/StdDriver/src/fmc.c:316:12
	beq	.LBB7_21
.Ltmp160:
@ %bb.2:
	@DEBUG_VALUE: FMC_EraseXOM:i32Active <- $r2
	@DEBUG_VALUE: FMC_EraseXOM:u32XomNum <- $r0
	@DEBUG_VALUE: FMC_EraseXOM:u32Addr <- undef
	.loc	2 0 12 is_stmt 0                @ Library/StdDriver/src/fmc.c:0:12
	add.w	r2, r1, #192
.Ltmp161:
	.loc	2 318 13 is_stmt 1              @ Library/StdDriver/src/fmc.c:318:13
.LCPI7_0:
	tbb	[pc, r0]
.Ltmp162:
@ %bb.3:
	.loc	2 0 13 is_stmt 0                @ Library/StdDriver/src/fmc.c:0:13
.LJTI7_0:
	.byte	(.LBB7_8-(.LCPI7_0+4))/2
	.byte	(.LBB7_4-(.LCPI7_0+4))/2
	.byte	(.LBB7_6-(.LCPI7_0+4))/2
	.byte	(.LBB7_7-(.LCPI7_0+4))/2
	.p2align	1
.LBB7_4:
.Ltmp163:
	@DEBUG_VALUE: FMC_EraseXOM:u32XomNum <- $r0
	add.w	r2, r1, #196
	b	.LBB7_8
.Ltmp164:
.LBB7_5:
	@DEBUG_VALUE: FMC_EraseXOM:u32XomNum <- $r0
	mvn	r0, #1
.Ltmp165:
	@DEBUG_VALUE: FMC_EraseXOM:u32XomNum <- [DW_OP_LLVM_entry_value 1] $r0
	b	.LBB7_22
.Ltmp166:
.LBB7_6:
	@DEBUG_VALUE: FMC_EraseXOM:u32XomNum <- $r0
	add.w	r2, r1, #200
	b	.LBB7_8
.Ltmp167:
.LBB7_7:
	@DEBUG_VALUE: FMC_EraseXOM:u32XomNum <- $r0
	add.w	r2, r1, #204
.Ltmp168:
.LBB7_8:
	@DEBUG_VALUE: FMC_EraseXOM:u32XomNum <- $r0
	ldr	r0, [r2]
.Ltmp169:
	@DEBUG_VALUE: FMC_EraseXOM:u32XomNum <- [DW_OP_LLVM_entry_value 1] $r0
	movs	r2, #34
	lsrs	r0, r0, #8
.Ltmp170:
	@DEBUG_VALUE: FMC_EraseXOM:u32Addr <- $r0
	.loc	2 335 25 is_stmt 1              @ Library/StdDriver/src/fmc.c:335:25
	str	r2, [r1, #-4]
	.loc	2 336 26                        @ Library/StdDriver/src/fmc.c:336:26
	str	r0, [r1, #-12]
	movw	r0, #43523
.Ltmp171:
	.loc	2 0 26 is_stmt 0                @ Library/StdDriver/src/fmc.c:0:26
	movt	r0, #85
	.loc	2 337 25 is_stmt 1              @ Library/StdDriver/src/fmc.c:337:25
	str	r0, [r1, #-8]
	movs	r0, #1
	.loc	2 338 25                        @ Library/StdDriver/src/fmc.c:338:25
	str	r0, [r1]
	.loc	2 342 20                        @ Library/StdDriver/src/fmc.c:342:20
	movw	r0, :lower16:SystemCoreClock
	movt	r0, :upper16:SystemCoreClock
	ldr	r0, [r0]
	movw	r2, #52429
	movt	r2, #52428
	umull	r0, r2, r0, r2
	mvn	r0, #3
	and.w	r2, r0, r2, lsr #1
.Ltmp172:
	@DEBUG_VALUE: FMC_EraseXOM:tout <- $r2
	.loc	2 0 20 is_stmt 0                @ Library/StdDriver/src/fmc.c:0:20
	movs	r0, #0
.Ltmp173:
	.p2align	2
.LBB7_9:                                @ =>This Inner Loop Header: Depth=1
	@DEBUG_VALUE: FMC_EraseXOM:tout <- $r2
	@DEBUG_VALUE: FMC_EraseXOM:u32XomNum <- [DW_OP_LLVM_entry_value 1] $r0
	@DEBUG_VALUE: FMC_EraseXOM:tout <- [DW_OP_constu 1, DW_OP_minus, DW_OP_stack_value] $r2
	.loc	2 343 33 is_stmt 1              @ Library/StdDriver/src/fmc.c:343:33
	cmp	r2, #1
	blt	.LBB7_16
.Ltmp174:
@ %bb.10:                               @   in Loop: Header=BB7_9 Depth=1
	@DEBUG_VALUE: FMC_EraseXOM:tout <- [DW_OP_constu 1, DW_OP_minus, DW_OP_stack_value] $r2
	@DEBUG_VALUE: FMC_EraseXOM:u32XomNum <- [DW_OP_LLVM_entry_value 1] $r0
	@DEBUG_VALUE: FMC_EraseXOM:tout <- [DW_OP_constu 1, DW_OP_minus, DW_OP_stack_value] $r2
	.loc	2 343 41 is_stmt 0              @ Library/StdDriver/src/fmc.c:343:41
	ldr	r3, [r1]
	.loc	2 343 13                        @ Library/StdDriver/src/fmc.c:343:13
	cbz	r3, .LBB7_19
.Ltmp175:
@ %bb.11:                               @   in Loop: Header=BB7_9 Depth=1
	@DEBUG_VALUE: FMC_EraseXOM:tout <- [DW_OP_constu 1, DW_OP_minus, DW_OP_stack_value] $r2
	@DEBUG_VALUE: FMC_EraseXOM:u32XomNum <- [DW_OP_LLVM_entry_value 1] $r0
	@DEBUG_VALUE: FMC_EraseXOM:tout <- [DW_OP_constu 2, DW_OP_minus, DW_OP_stack_value] $r2
	.loc	2 343 41                        @ Library/StdDriver/src/fmc.c:343:41
	ldr	r3, [r1]
	.loc	2 343 13                        @ Library/StdDriver/src/fmc.c:343:13
	cbz	r3, .LBB7_17
.Ltmp176:
@ %bb.12:                               @   in Loop: Header=BB7_9 Depth=1
	@DEBUG_VALUE: FMC_EraseXOM:tout <- [DW_OP_constu 2, DW_OP_minus, DW_OP_stack_value] $r2
	@DEBUG_VALUE: FMC_EraseXOM:u32XomNum <- [DW_OP_LLVM_entry_value 1] $r0
	@DEBUG_VALUE: FMC_EraseXOM:tout <- [DW_OP_constu 2, DW_OP_minus, DW_OP_constu 1, DW_OP_minus, DW_OP_stack_value] $r2
	.loc	2 343 33                        @ Library/StdDriver/src/fmc.c:343:33
	cmp	r2, #3
	blt	.LBB7_16
.Ltmp177:
@ %bb.13:                               @   in Loop: Header=BB7_9 Depth=1
	@DEBUG_VALUE: FMC_EraseXOM:tout <- [DW_OP_constu 2, DW_OP_minus, DW_OP_constu 1, DW_OP_minus, DW_OP_stack_value] $r2
	@DEBUG_VALUE: FMC_EraseXOM:u32XomNum <- [DW_OP_LLVM_entry_value 1] $r0
	@DEBUG_VALUE: FMC_EraseXOM:tout <- [DW_OP_constu 3, DW_OP_minus, DW_OP_stack_value] $r2
	.loc	2 343 41                        @ Library/StdDriver/src/fmc.c:343:41
	ldr	r3, [r1]
	.loc	2 343 13                        @ Library/StdDriver/src/fmc.c:343:13
	cbz	r3, .LBB7_18
.Ltmp178:
@ %bb.14:                               @   in Loop: Header=BB7_9 Depth=1
	@DEBUG_VALUE: FMC_EraseXOM:tout <- [DW_OP_constu 3, DW_OP_minus, DW_OP_stack_value] $r2
	@DEBUG_VALUE: FMC_EraseXOM:u32XomNum <- [DW_OP_LLVM_entry_value 1] $r0
	@DEBUG_VALUE: FMC_EraseXOM:tout <- [DW_OP_constu 3, DW_OP_minus, DW_OP_constu 1, DW_OP_minus, DW_OP_stack_value] $r2
	.loc	2 343 41                        @ Library/StdDriver/src/fmc.c:343:41
	ldr	r3, [r1]
	.loc	2 343 25                        @ Library/StdDriver/src/fmc.c:343:25
	subs	r2, #4
.Ltmp179:
	@DEBUG_VALUE: FMC_EraseXOM:tout <- $r2
	.loc	2 343 13                        @ Library/StdDriver/src/fmc.c:343:13
	cmp	r3, #0
	bne	.LBB7_9
.Ltmp180:
@ %bb.15:
	@DEBUG_VALUE: FMC_EraseXOM:tout <- $r2
	@DEBUG_VALUE: FMC_EraseXOM:u32XomNum <- [DW_OP_LLVM_entry_value 1] $r0
	.loc	2 344 22 is_stmt 1              @ Library/StdDriver/src/fmc.c:344:22
	adds	r2, #1
.Ltmp181:
	.loc	2 0 22 is_stmt 0                @ Library/StdDriver/src/fmc.c:0:22
	b	.LBB7_19
.Ltmp182:
.LBB7_16:
	@DEBUG_VALUE: FMC_EraseXOM:u32XomNum <- [DW_OP_LLVM_entry_value 1] $r0
	movs	r2, #0
	b	.LBB7_19
.Ltmp183:
.LBB7_17:
	@DEBUG_VALUE: FMC_EraseXOM:tout <- [DW_OP_constu 2, DW_OP_minus, DW_OP_stack_value] $r2
	@DEBUG_VALUE: FMC_EraseXOM:u32XomNum <- [DW_OP_LLVM_entry_value 1] $r0
	.loc	2 344 22                        @ Library/StdDriver/src/fmc.c:344:22
	subs	r2, #1
.Ltmp184:
	.loc	2 0 22                          @ Library/StdDriver/src/fmc.c:0:22
	b	.LBB7_19
.Ltmp185:
.LBB7_18:
	@DEBUG_VALUE: FMC_EraseXOM:tout <- [DW_OP_constu 3, DW_OP_minus, DW_OP_stack_value] $r2
	@DEBUG_VALUE: FMC_EraseXOM:u32XomNum <- [DW_OP_LLVM_entry_value 1] $r0
	.loc	2 344 22                        @ Library/StdDriver/src/fmc.c:344:22
	subs	r2, #2
.Ltmp186:
.LBB7_19:
	@DEBUG_VALUE: FMC_EraseXOM:u32XomNum <- [DW_OP_LLVM_entry_value 1] $r0
	.loc	2 344 17                        @ Library/StdDriver/src/fmc.c:344:17
	cmp	r2, #2
	it	lo
	movlo.w	r0, #-1
.Ltmp187:
	@DEBUG_VALUE: FMC_EraseXOM:err <- $r0
	.loc	2 348 21 is_stmt 1              @ Library/StdDriver/src/fmc.c:348:21
	ldr	r2, [r1, #-16]
.Ltmp188:
	.loc	2 348 16 is_stmt 0              @ Library/StdDriver/src/fmc.c:348:16
	lsls	r2, r2, #25
	bpl	.LBB7_22
.Ltmp189:
@ %bb.20:
	@DEBUG_VALUE: FMC_EraseXOM:err <- $r0
	@DEBUG_VALUE: FMC_EraseXOM:u32XomNum <- [DW_OP_LLVM_entry_value 1] $r0
	.loc	2 350 29 is_stmt 1              @ Library/StdDriver/src/fmc.c:350:29
	ldr	r0, [r1, #-16]
.Ltmp190:
	orr	r0, r0, #64
	str	r0, [r1, #-16]
.Ltmp191:
.LBB7_21:
	.loc	2 0 29 is_stmt 0                @ Library/StdDriver/src/fmc.c:0:29
	mov.w	r0, #-1
.Ltmp192:
	@DEBUG_VALUE: FMC_EraseXOM:err <- -1
.LBB7_22:
	@DEBUG_VALUE: FMC_EraseXOM:err <- $r0
	.loc	2 359 22 is_stmt 1              @ Library/StdDriver/src/fmc.c:359:22
	movw	r1, :lower16:g_FMC_i32ErrCode
	movt	r1, :upper16:g_FMC_i32ErrCode
	str	r0, [r1]
	.loc	2 360 5                         @ Library/StdDriver/src/fmc.c:360:5
	bx	lr
.Ltmp193:
.Lfunc_end7:
	.size	FMC_EraseXOM, .Lfunc_end7-FMC_EraseXOM
	.cfi_endproc
	.cantunwind
	.fnend
                                        @ -- End function
	.section	.text.FMC_GetBootSource,"ax",%progbits
	.hidden	FMC_GetBootSource               @ -- Begin function FMC_GetBootSource
	.globl	FMC_GetBootSource
	.p2align	2
	.type	FMC_GetBootSource,%function
	.code	16                              @ @FMC_GetBootSource
	.thumb_func
FMC_GetBootSource:
.Lfunc_begin8:
	.loc	2 398 0                         @ Library/StdDriver/src/fmc.c:398:0
	.fnstart
	.cfi_startproc
@ %bb.0:
	movw	r0, #49152
	movt	r0, #16384
.Ltmp194:
	.loc	2 399 14 prologue_end           @ Library/StdDriver/src/fmc.c:399:14
	ldr	r1, [r0]
.Ltmp195:
	.loc	2 399 9 is_stmt 0               @ Library/StdDriver/src/fmc.c:399:9
	lsls	r1, r1, #15
	itee	mi
	movmi	r0, #2
.Ltmp196:
	.loc	2 403 14 is_stmt 1              @ Library/StdDriver/src/fmc.c:403:14
	ldrpl	r0, [r0]
.Ltmp197:
	.loc	2 0 0 is_stmt 0                 @ Library/StdDriver/src/fmc.c:0:0
	ubfxpl	r0, r0, #1, #1
	.loc	2 408 1 is_stmt 1               @ Library/StdDriver/src/fmc.c:408:1
	bx	lr
.Ltmp198:
.Lfunc_end8:
	.size	FMC_GetBootSource, .Lfunc_end8-FMC_GetBootSource
	.cfi_endproc
	.cantunwind
	.fnend
                                        @ -- End function
	.section	.text.FMC_Open,"ax",%progbits
	.hidden	FMC_Open                        @ -- Begin function FMC_Open
	.globl	FMC_Open
	.p2align	2
	.type	FMC_Open,%function
	.code	16                              @ @FMC_Open
	.thumb_func
FMC_Open:
.Lfunc_begin9:
	.loc	2 416 0                         @ Library/StdDriver/src/fmc.c:416:0
	.fnstart
	.cfi_startproc
@ %bb.0:
	movw	r0, #49152
	movt	r0, #16384
.Ltmp199:
	.loc	2 417 17 prologue_end           @ Library/StdDriver/src/fmc.c:417:17
	ldr	r1, [r0]
	orr	r1, r1, #1
	str	r1, [r0]
	.loc	2 418 1                         @ Library/StdDriver/src/fmc.c:418:1
	bx	lr
.Ltmp200:
.Lfunc_end9:
	.size	FMC_Open, .Lfunc_end9-FMC_Open
	.cfi_endproc
	.cantunwind
	.fnend
                                        @ -- End function
	.section	.text.FMC_Read,"ax",%progbits
	.hidden	FMC_Read                        @ -- Begin function FMC_Read
	.globl	FMC_Read
	.p2align	2
	.type	FMC_Read,%function
	.code	16                              @ @FMC_Read
	.thumb_func
FMC_Read:
.Lfunc_begin10:
	.loc	2 432 0                         @ Library/StdDriver/src/fmc.c:432:0
	.fnstart
	.cfi_startproc
@ %bb.0:
	@DEBUG_VALUE: FMC_Read:u32Addr <- $r0
	movw	r1, #49344
.Ltmp201:
	.loc	2 435 22 prologue_end           @ Library/StdDriver/src/fmc.c:435:22
	movw	r2, :lower16:g_FMC_i32ErrCode
	movt	r1, #16384
	movt	r2, :upper16:g_FMC_i32ErrCode
	movs	r3, #0
	str	r3, [r2]
	.loc	2 436 17                        @ Library/StdDriver/src/fmc.c:436:17
	str	r3, [r1, #-180]
	.loc	2 437 18                        @ Library/StdDriver/src/fmc.c:437:18
	str	r0, [r1, #-188]
	movs	r0, #1
.Ltmp202:
	@DEBUG_VALUE: FMC_Read:u32Addr <- [DW_OP_LLVM_entry_value 1] $r0
	.loc	2 438 17                        @ Library/StdDriver/src/fmc.c:438:17
	str	r0, [r1, #-176]
	.loc	2 440 12                        @ Library/StdDriver/src/fmc.c:440:12
	movw	r0, :lower16:SystemCoreClock
	movt	r0, :upper16:SystemCoreClock
	ldr	r0, [r0]
	movw	r3, #52429
	movt	r3, #52428
	umull	r0, r3, r0, r3
	mvn	r0, #1
	and.w	r0, r0, r3, lsr #2
.Ltmp203:
	@DEBUG_VALUE: FMC_Read:tout <- $r0
	.p2align	2
.LBB10_1:                               @ =>This Inner Loop Header: Depth=1
	@DEBUG_VALUE: FMC_Read:tout <- $r0
	@DEBUG_VALUE: FMC_Read:u32Addr <- [DW_OP_LLVM_entry_value 1] $r0
	@DEBUG_VALUE: FMC_Read:tout <- [DW_OP_constu 1, DW_OP_minus, DW_OP_stack_value] $r0
	.loc	2 441 25                        @ Library/StdDriver/src/fmc.c:441:25
	cbz	r0, .LBB10_11
.Ltmp204:
@ %bb.2:                                @   in Loop: Header=BB10_1 Depth=1
	@DEBUG_VALUE: FMC_Read:tout <- [DW_OP_constu 1, DW_OP_minus, DW_OP_stack_value] $r0
	@DEBUG_VALUE: FMC_Read:u32Addr <- [DW_OP_LLVM_entry_value 1] $r0
	@DEBUG_VALUE: FMC_Read:tout <- [DW_OP_constu 1, DW_OP_minus, DW_OP_stack_value] $r0
	.loc	2 441 34 is_stmt 0              @ Library/StdDriver/src/fmc.c:441:34
	ldr	r3, [r1]
	.loc	2 441 5                         @ Library/StdDriver/src/fmc.c:441:5
	lsls	r3, r3, #31
	beq	.LBB10_10
.Ltmp205:
@ %bb.3:                                @   in Loop: Header=BB10_1 Depth=1
	@DEBUG_VALUE: FMC_Read:tout <- [DW_OP_constu 1, DW_OP_minus, DW_OP_stack_value] $r0
	@DEBUG_VALUE: FMC_Read:u32Addr <- [DW_OP_LLVM_entry_value 1] $r0
	@DEBUG_VALUE: FMC_Read:tout <- [DW_OP_constu 2, DW_OP_minus, DW_OP_stack_value] $r0
	.loc	2 441 34                        @ Library/StdDriver/src/fmc.c:441:34
	ldr	r3, [r1]
	.loc	2 441 5                         @ Library/StdDriver/src/fmc.c:441:5
	lsls	r3, r3, #31
	beq	.LBB10_8
.Ltmp206:
@ %bb.4:                                @   in Loop: Header=BB10_1 Depth=1
	@DEBUG_VALUE: FMC_Read:tout <- [DW_OP_constu 2, DW_OP_minus, DW_OP_stack_value] $r0
	@DEBUG_VALUE: FMC_Read:u32Addr <- [DW_OP_LLVM_entry_value 1] $r0
	@DEBUG_VALUE: FMC_Read:tout <- [DW_OP_constu 2, DW_OP_minus, DW_OP_constu 1, DW_OP_minus, DW_OP_stack_value] $r0
	.loc	2 441 25                        @ Library/StdDriver/src/fmc.c:441:25
	cmp	r0, #2
	beq	.LBB10_11
.Ltmp207:
@ %bb.5:                                @   in Loop: Header=BB10_1 Depth=1
	@DEBUG_VALUE: FMC_Read:tout <- [DW_OP_constu 2, DW_OP_minus, DW_OP_constu 1, DW_OP_minus, DW_OP_stack_value] $r0
	@DEBUG_VALUE: FMC_Read:u32Addr <- [DW_OP_LLVM_entry_value 1] $r0
	@DEBUG_VALUE: FMC_Read:tout <- [DW_OP_constu 3, DW_OP_minus, DW_OP_stack_value] $r0
	.loc	2 441 34                        @ Library/StdDriver/src/fmc.c:441:34
	ldr	r3, [r1]
	.loc	2 441 5                         @ Library/StdDriver/src/fmc.c:441:5
	lsls	r3, r3, #31
	beq	.LBB10_9
.Ltmp208:
@ %bb.6:                                @   in Loop: Header=BB10_1 Depth=1
	@DEBUG_VALUE: FMC_Read:tout <- [DW_OP_constu 3, DW_OP_minus, DW_OP_stack_value] $r0
	@DEBUG_VALUE: FMC_Read:u32Addr <- [DW_OP_LLVM_entry_value 1] $r0
	@DEBUG_VALUE: FMC_Read:tout <- [DW_OP_constu 3, DW_OP_minus, DW_OP_constu 1, DW_OP_minus, DW_OP_stack_value] $r0
	.loc	2 441 34                        @ Library/StdDriver/src/fmc.c:441:34
	ldr	r3, [r1]
	.loc	2 441 17                        @ Library/StdDriver/src/fmc.c:441:17
	subs	r0, #4
.Ltmp209:
	@DEBUG_VALUE: FMC_Read:tout <- $r0
	.loc	2 441 5                         @ Library/StdDriver/src/fmc.c:441:5
	lsls	r3, r3, #31
	bne	.LBB10_1
.Ltmp210:
@ %bb.7:
	@DEBUG_VALUE: FMC_Read:tout <- $r0
	@DEBUG_VALUE: FMC_Read:u32Addr <- [DW_OP_LLVM_entry_value 1] $r0
	.loc	2 442 14 is_stmt 1              @ Library/StdDriver/src/fmc.c:442:14
	adds	r0, #1
.Ltmp211:
	.loc	2 0 14 is_stmt 0                @ Library/StdDriver/src/fmc.c:0:14
	b	.LBB10_10
.Ltmp212:
.LBB10_8:
	@DEBUG_VALUE: FMC_Read:tout <- [DW_OP_constu 2, DW_OP_minus, DW_OP_stack_value] $r0
	@DEBUG_VALUE: FMC_Read:u32Addr <- [DW_OP_LLVM_entry_value 1] $r0
	.loc	2 442 14                        @ Library/StdDriver/src/fmc.c:442:14
	subs	r0, #1
.Ltmp213:
	.loc	2 0 14                          @ Library/StdDriver/src/fmc.c:0:14
	b	.LBB10_10
.Ltmp214:
.LBB10_9:
	@DEBUG_VALUE: FMC_Read:tout <- [DW_OP_constu 3, DW_OP_minus, DW_OP_stack_value] $r0
	@DEBUG_VALUE: FMC_Read:u32Addr <- [DW_OP_LLVM_entry_value 1] $r0
	.loc	2 442 14                        @ Library/StdDriver/src/fmc.c:442:14
	subs	r0, #2
.Ltmp215:
.LBB10_10:
	@DEBUG_VALUE: FMC_Read:u32Addr <- [DW_OP_LLVM_entry_value 1] $r0
	.loc	2 442 9                         @ Library/StdDriver/src/fmc.c:442:9
	cmp	r0, #1
	.loc	2 447 17 is_stmt 1              @ Library/StdDriver/src/fmc.c:447:17
	itt	ne
	ldrne	r0, [r1, #-184]
	.loc	2 448 1                         @ Library/StdDriver/src/fmc.c:448:1
	bxne	lr
.Ltmp216:
.LBB10_11:
	@DEBUG_VALUE: FMC_Read:u32Addr <- [DW_OP_LLVM_entry_value 1] $r0
	.loc	2 0 1 is_stmt 0                 @ Library/StdDriver/src/fmc.c:0:1
	mov.w	r0, #-1
.Ltmp217:
	.loc	2 444 26 is_stmt 1              @ Library/StdDriver/src/fmc.c:444:26
	str	r0, [r2]
.Ltmp218:
	.loc	2 448 1                         @ Library/StdDriver/src/fmc.c:448:1
	bx	lr
.Ltmp219:
.Lfunc_end10:
	.size	FMC_Read, .Lfunc_end10-FMC_Read
	.cfi_endproc
	.cantunwind
	.fnend
                                        @ -- End function
	.section	.text.FMC_Read_64,"ax",%progbits
	.hidden	FMC_Read_64                     @ -- Begin function FMC_Read_64
	.globl	FMC_Read_64
	.p2align	2
	.type	FMC_Read_64,%function
	.code	16                              @ @FMC_Read_64
	.thumb_func
FMC_Read_64:
.Lfunc_begin11:
	.loc	2 464 0                         @ Library/StdDriver/src/fmc.c:464:0
	.fnstart
	.cfi_startproc
@ %bb.0:
	@DEBUG_VALUE: FMC_Read_64:u32addr <- $r0
	@DEBUG_VALUE: FMC_Read_64:u32data0 <- $r1
	@DEBUG_VALUE: FMC_Read_64:u32data1 <- $r2
	.save	{r4, lr}
	push	{r4, lr}
	.cfi_def_cfa_offset 8
	.cfi_offset lr, -4
	.cfi_offset r4, -8
	movw	r3, #49344
.Ltmp220:
	.loc	2 467 22 prologue_end           @ Library/StdDriver/src/fmc.c:467:22
	movw	r12, :lower16:g_FMC_i32ErrCode
	movt	r3, #16384
	movt	r12, :upper16:g_FMC_i32ErrCode
	mov.w	lr, #0
	movs	r4, #64
	str.w	lr, [r12]
	.loc	2 468 17                        @ Library/StdDriver/src/fmc.c:468:17
	str	r4, [r3, #-180]
	.loc	2 469 21                        @ Library/StdDriver/src/fmc.c:469:21
	str	r0, [r3, #-188]
	movs	r0, #1
.Ltmp221:
	@DEBUG_VALUE: FMC_Read_64:u32addr <- [DW_OP_LLVM_entry_value 1] $r0
	.loc	2 470 17                        @ Library/StdDriver/src/fmc.c:470:17
	str	lr, [r3, #-184]
	.loc	2 471 17                        @ Library/StdDriver/src/fmc.c:471:17
	str	r0, [r3, #-176]
	.loc	2 473 12                        @ Library/StdDriver/src/fmc.c:473:12
	movw	r0, :lower16:SystemCoreClock
	movt	r0, :upper16:SystemCoreClock
	ldr	r0, [r0]
	movw	r4, #52429
	movt	r4, #52428
	umull	r0, r4, r0, r4
	mvn	r0, #1
	and.w	r0, r0, r4, lsr #2
.Ltmp222:
	@DEBUG_VALUE: FMC_Read_64:tout <- $r0
	.p2align	2
.LBB11_1:                               @ =>This Inner Loop Header: Depth=1
	@DEBUG_VALUE: FMC_Read_64:tout <- $r0
	@DEBUG_VALUE: FMC_Read_64:u32addr <- [DW_OP_LLVM_entry_value 1] $r0
	@DEBUG_VALUE: FMC_Read_64:u32data1 <- $r2
	@DEBUG_VALUE: FMC_Read_64:u32data0 <- $r1
	@DEBUG_VALUE: FMC_Read_64:tout <- [DW_OP_constu 1, DW_OP_minus, DW_OP_stack_value] $r0
	.loc	2 474 25                        @ Library/StdDriver/src/fmc.c:474:25
	cbz	r0, .LBB11_14
.Ltmp223:
@ %bb.2:                                @   in Loop: Header=BB11_1 Depth=1
	@DEBUG_VALUE: FMC_Read_64:tout <- [DW_OP_constu 1, DW_OP_minus, DW_OP_stack_value] $r0
	@DEBUG_VALUE: FMC_Read_64:u32addr <- [DW_OP_LLVM_entry_value 1] $r0
	@DEBUG_VALUE: FMC_Read_64:u32data1 <- $r2
	@DEBUG_VALUE: FMC_Read_64:u32data0 <- $r1
	@DEBUG_VALUE: FMC_Read_64:tout <- [DW_OP_constu 1, DW_OP_minus, DW_OP_stack_value] $r0
	.loc	2 474 34 is_stmt 0              @ Library/StdDriver/src/fmc.c:474:34
	ldr	r4, [r3]
	.loc	2 474 5                         @ Library/StdDriver/src/fmc.c:474:5
	lsls	r4, r4, #31
	beq	.LBB11_9
.Ltmp224:
@ %bb.3:                                @   in Loop: Header=BB11_1 Depth=1
	@DEBUG_VALUE: FMC_Read_64:tout <- [DW_OP_constu 1, DW_OP_minus, DW_OP_stack_value] $r0
	@DEBUG_VALUE: FMC_Read_64:u32addr <- [DW_OP_LLVM_entry_value 1] $r0
	@DEBUG_VALUE: FMC_Read_64:u32data1 <- $r2
	@DEBUG_VALUE: FMC_Read_64:u32data0 <- $r1
	@DEBUG_VALUE: FMC_Read_64:tout <- [DW_OP_constu 2, DW_OP_minus, DW_OP_stack_value] $r0
	.loc	2 474 34                        @ Library/StdDriver/src/fmc.c:474:34
	ldr	r4, [r3]
	.loc	2 474 5                         @ Library/StdDriver/src/fmc.c:474:5
	lsls	r4, r4, #31
	beq	.LBB11_8
.Ltmp225:
@ %bb.4:                                @   in Loop: Header=BB11_1 Depth=1
	@DEBUG_VALUE: FMC_Read_64:tout <- [DW_OP_constu 2, DW_OP_minus, DW_OP_stack_value] $r0
	@DEBUG_VALUE: FMC_Read_64:u32addr <- [DW_OP_LLVM_entry_value 1] $r0
	@DEBUG_VALUE: FMC_Read_64:u32data1 <- $r2
	@DEBUG_VALUE: FMC_Read_64:u32data0 <- $r1
	@DEBUG_VALUE: FMC_Read_64:tout <- [DW_OP_constu 2, DW_OP_minus, DW_OP_constu 1, DW_OP_minus, DW_OP_stack_value] $r0
	.loc	2 474 25                        @ Library/StdDriver/src/fmc.c:474:25
	cmp	r0, #2
	beq	.LBB11_14
.Ltmp226:
@ %bb.5:                                @   in Loop: Header=BB11_1 Depth=1
	@DEBUG_VALUE: FMC_Read_64:tout <- [DW_OP_constu 2, DW_OP_minus, DW_OP_constu 1, DW_OP_minus, DW_OP_stack_value] $r0
	@DEBUG_VALUE: FMC_Read_64:u32addr <- [DW_OP_LLVM_entry_value 1] $r0
	@DEBUG_VALUE: FMC_Read_64:u32data1 <- $r2
	@DEBUG_VALUE: FMC_Read_64:u32data0 <- $r1
	@DEBUG_VALUE: FMC_Read_64:tout <- [DW_OP_constu 3, DW_OP_minus, DW_OP_stack_value] $r0
	.loc	2 474 34                        @ Library/StdDriver/src/fmc.c:474:34
	ldr	r4, [r3]
	.loc	2 474 5                         @ Library/StdDriver/src/fmc.c:474:5
	lsls	r4, r4, #31
	beq	.LBB11_13
.Ltmp227:
@ %bb.6:                                @   in Loop: Header=BB11_1 Depth=1
	@DEBUG_VALUE: FMC_Read_64:tout <- [DW_OP_constu 3, DW_OP_minus, DW_OP_stack_value] $r0
	@DEBUG_VALUE: FMC_Read_64:u32addr <- [DW_OP_LLVM_entry_value 1] $r0
	@DEBUG_VALUE: FMC_Read_64:u32data1 <- $r2
	@DEBUG_VALUE: FMC_Read_64:u32data0 <- $r1
	@DEBUG_VALUE: FMC_Read_64:tout <- [DW_OP_constu 3, DW_OP_minus, DW_OP_constu 1, DW_OP_minus, DW_OP_stack_value] $r0
	.loc	2 474 34                        @ Library/StdDriver/src/fmc.c:474:34
	ldr	r4, [r3]
	.loc	2 474 17                        @ Library/StdDriver/src/fmc.c:474:17
	subs	r0, #4
.Ltmp228:
	@DEBUG_VALUE: FMC_Read_64:tout <- $r0
	.loc	2 474 5                         @ Library/StdDriver/src/fmc.c:474:5
	lsls	r4, r4, #31
	bne	.LBB11_1
.Ltmp229:
@ %bb.7:
	@DEBUG_VALUE: FMC_Read_64:tout <- $r0
	@DEBUG_VALUE: FMC_Read_64:u32addr <- [DW_OP_LLVM_entry_value 1] $r0
	@DEBUG_VALUE: FMC_Read_64:u32data1 <- $r2
	@DEBUG_VALUE: FMC_Read_64:u32data0 <- $r1
	.loc	2 475 14 is_stmt 1              @ Library/StdDriver/src/fmc.c:475:14
	adds	r0, #1
.Ltmp230:
	.loc	2 475 9 is_stmt 0               @ Library/StdDriver/src/fmc.c:475:9
	cmp	r0, #1
	bne	.LBB11_10
	b	.LBB11_14
.Ltmp231:
.LBB11_8:
	@DEBUG_VALUE: FMC_Read_64:tout <- [DW_OP_constu 2, DW_OP_minus, DW_OP_stack_value] $r0
	@DEBUG_VALUE: FMC_Read_64:u32addr <- [DW_OP_LLVM_entry_value 1] $r0
	@DEBUG_VALUE: FMC_Read_64:u32data1 <- $r2
	@DEBUG_VALUE: FMC_Read_64:u32data0 <- $r1
	.loc	2 475 14                        @ Library/StdDriver/src/fmc.c:475:14
	subs	r0, #1
.Ltmp232:
.LBB11_9:
	@DEBUG_VALUE: FMC_Read_64:u32addr <- [DW_OP_LLVM_entry_value 1] $r0
	@DEBUG_VALUE: FMC_Read_64:u32data1 <- $r2
	@DEBUG_VALUE: FMC_Read_64:u32data0 <- $r1
	.loc	2 475 9                         @ Library/StdDriver/src/fmc.c:475:9
	cmp	r0, #1
	beq	.LBB11_14
.Ltmp233:
.LBB11_10:
	@DEBUG_VALUE: FMC_Read_64:u32addr <- [DW_OP_LLVM_entry_value 1] $r0
	@DEBUG_VALUE: FMC_Read_64:u32data1 <- $r2
	@DEBUG_VALUE: FMC_Read_64:u32data0 <- $r1
	.loc	2 481 14 is_stmt 1              @ Library/StdDriver/src/fmc.c:481:14
	ldr	r0, [r3, #-128]
.Ltmp234:
	.loc	2 481 9 is_stmt 0               @ Library/StdDriver/src/fmc.c:481:9
	lsls	r0, r0, #25
	bmi	.LBB11_12
.Ltmp235:
@ %bb.11:
	@DEBUG_VALUE: FMC_Read_64:u32addr <- [DW_OP_LLVM_entry_value 1] $r0
	@DEBUG_VALUE: FMC_Read_64:u32data1 <- $r2
	@DEBUG_VALUE: FMC_Read_64:u32data0 <- $r1
	.loc	2 489 26 is_stmt 1              @ Library/StdDriver/src/fmc.c:489:26
	ldr	r0, [r3, #-64]
	.loc	2 489 19 is_stmt 0              @ Library/StdDriver/src/fmc.c:489:19
	str	r0, [r1]
	.loc	2 490 26 is_stmt 1              @ Library/StdDriver/src/fmc.c:490:26
	ldr	r0, [r3, #-60]
	.loc	2 490 19 is_stmt 0              @ Library/StdDriver/src/fmc.c:490:19
	str	r0, [r2]
	movs	r0, #0
.Ltmp236:
	.loc	2 493 1 epilogue_begin is_stmt 1 @ Library/StdDriver/src/fmc.c:493:1
	pop	{r4, pc}
.Ltmp237:
.LBB11_12:
	@DEBUG_VALUE: FMC_Read_64:u32addr <- [DW_OP_LLVM_entry_value 1] $r0
	@DEBUG_VALUE: FMC_Read_64:u32data1 <- $r2
	@DEBUG_VALUE: FMC_Read_64:u32data0 <- $r1
	.loc	2 483 21                        @ Library/StdDriver/src/fmc.c:483:21
	ldr	r0, [r3, #-128]
	orr	r0, r0, #64
	str	r0, [r3, #-128]
	b	.LBB11_14
.Ltmp238:
.LBB11_13:
	@DEBUG_VALUE: FMC_Read_64:tout <- [DW_OP_constu 3, DW_OP_minus, DW_OP_stack_value] $r0
	@DEBUG_VALUE: FMC_Read_64:u32addr <- [DW_OP_LLVM_entry_value 1] $r0
	@DEBUG_VALUE: FMC_Read_64:u32data1 <- $r2
	@DEBUG_VALUE: FMC_Read_64:u32data0 <- $r1
	.loc	2 475 14                        @ Library/StdDriver/src/fmc.c:475:14
	subs	r0, #2
.Ltmp239:
	.loc	2 475 9 is_stmt 0               @ Library/StdDriver/src/fmc.c:475:9
	cmp	r0, #1
	bne	.LBB11_10
.Ltmp240:
.LBB11_14:
	@DEBUG_VALUE: FMC_Read_64:u32addr <- [DW_OP_LLVM_entry_value 1] $r0
	@DEBUG_VALUE: FMC_Read_64:u32data1 <- $r2
	@DEBUG_VALUE: FMC_Read_64:u32data0 <- $r1
	.loc	2 0 9                           @ Library/StdDriver/src/fmc.c:0:9
	mov.w	r0, #-1
	str.w	r0, [r12]
	.loc	2 493 1 epilogue_begin is_stmt 1 @ Library/StdDriver/src/fmc.c:493:1
	pop	{r4, pc}
.Ltmp241:
.Lfunc_end11:
	.size	FMC_Read_64, .Lfunc_end11-FMC_Read_64
	.cfi_endproc
	.cantunwind
	.fnend
                                        @ -- End function
	.section	.text.FMC_ReadDataFlashBaseAddr,"ax",%progbits
	.hidden	FMC_ReadDataFlashBaseAddr       @ -- Begin function FMC_ReadDataFlashBaseAddr
	.globl	FMC_ReadDataFlashBaseAddr
	.p2align	2
	.type	FMC_ReadDataFlashBaseAddr,%function
	.code	16                              @ @FMC_ReadDataFlashBaseAddr
	.thumb_func
FMC_ReadDataFlashBaseAddr:
.Lfunc_begin12:
	.loc	2 501 0                         @ Library/StdDriver/src/fmc.c:501:0
	.fnstart
	.cfi_startproc
@ %bb.0:
	movw	r0, #49172
	movt	r0, #16384
.Ltmp242:
	.loc	2 502 17 prologue_end           @ Library/StdDriver/src/fmc.c:502:17
	ldr	r0, [r0]
	.loc	2 502 5 is_stmt 0               @ Library/StdDriver/src/fmc.c:502:5
	bx	lr
.Ltmp243:
.Lfunc_end12:
	.size	FMC_ReadDataFlashBaseAddr, .Lfunc_end12-FMC_ReadDataFlashBaseAddr
	.cfi_endproc
	.cantunwind
	.fnend
                                        @ -- End function
	.section	.text.FMC_SetBootSource,"ax",%progbits
	.hidden	FMC_SetBootSource               @ -- Begin function FMC_SetBootSource
	.globl	FMC_SetBootSource
	.p2align	2
	.type	FMC_SetBootSource,%function
	.code	16                              @ @FMC_SetBootSource
	.thumb_func
FMC_SetBootSource:
.Lfunc_begin13:
	.loc	2 516 0 is_stmt 1               @ Library/StdDriver/src/fmc.c:516:0
	.fnstart
	.cfi_startproc
@ %bb.0:
	@DEBUG_VALUE: FMC_SetBootSource:i32BootSrc <- $r0
	movw	r1, #49152
	movt	r1, #16384
.Ltmp244:
	.loc	2 0 0 is_stmt 0                 @ Library/StdDriver/src/fmc.c:0:0
	ldr	r2, [r1]
.Ltmp245:
	.loc	2 517 8 prologue_end is_stmt 1  @ Library/StdDriver/src/fmc.c:517:8
	cmp	r0, #0
	bic	r2, r2, #2
	it	ne
	addne	r2, #2
.Ltmp246:
	.loc	2 0 0 is_stmt 0                 @ Library/StdDriver/src/fmc.c:0:0
	str	r2, [r1]
.Ltmp247:
	.loc	2 525 1 is_stmt 1               @ Library/StdDriver/src/fmc.c:525:1
	bx	lr
.Ltmp248:
.Lfunc_end13:
	.size	FMC_SetBootSource, .Lfunc_end13-FMC_SetBootSource
	.cfi_endproc
	.cantunwind
	.fnend
                                        @ -- End function
	.section	.text.FMC_Write,"ax",%progbits
	.hidden	FMC_Write                       @ -- Begin function FMC_Write
	.globl	FMC_Write
	.p2align	2
	.type	FMC_Write,%function
	.code	16                              @ @FMC_Write
	.thumb_func
FMC_Write:
.Lfunc_begin14:
	.fnstart
	.cfi_startproc
@ %bb.0:
	@DEBUG_VALUE: FMC_Write:u32Addr <- $r0
	@DEBUG_VALUE: FMC_Write:u32Data <- $r1
	.loc	2 542 22 prologue_end           @ Library/StdDriver/src/fmc.c:542:22
	movw	r12, :lower16:g_FMC_i32ErrCode
	movw	r3, #49344
	movt	r12, :upper16:g_FMC_i32ErrCode
	movs	r2, #0
	movt	r3, #16384
	str.w	r2, [r12]
	movs	r2, #33
	.loc	2 543 17                        @ Library/StdDriver/src/fmc.c:543:17
	str	r2, [r3, #-180]
	.loc	2 544 18                        @ Library/StdDriver/src/fmc.c:544:18
	str	r0, [r3, #-188]
	movs	r0, #1
.Ltmp249:
	@DEBUG_VALUE: FMC_Write:u32Addr <- [DW_OP_LLVM_entry_value 1] $r0
	.loc	2 545 17                        @ Library/StdDriver/src/fmc.c:545:17
	str	r1, [r3, #-184]
	.loc	2 546 17                        @ Library/StdDriver/src/fmc.c:546:17
	str	r0, [r3, #-176]
	.loc	2 548 12                        @ Library/StdDriver/src/fmc.c:548:12
	movw	r0, :lower16:SystemCoreClock
	movt	r0, :upper16:SystemCoreClock
	ldr	r0, [r0]
	movw	r1, #52429
.Ltmp250:
	@DEBUG_VALUE: FMC_Write:u32Data <- [DW_OP_LLVM_entry_value 1] $r1
	.loc	2 0 12 is_stmt 0                @ Library/StdDriver/src/fmc.c:0:12
	movt	r1, #52428
	.loc	2 548 12                        @ Library/StdDriver/src/fmc.c:548:12
	umull	r0, r1, r0, r1
	mvn	r0, #1
	and.w	r0, r0, r1, lsr #2
.Ltmp251:
	@DEBUG_VALUE: FMC_Write:tout <- $r0
	.p2align	2
.LBB14_1:                               @ =>This Inner Loop Header: Depth=1
	@DEBUG_VALUE: FMC_Write:tout <- $r0
	@DEBUG_VALUE: FMC_Write:u32Data <- [DW_OP_LLVM_entry_value 1] $r1
	@DEBUG_VALUE: FMC_Write:u32Addr <- [DW_OP_LLVM_entry_value 1] $r0
	@DEBUG_VALUE: FMC_Write:tout <- [DW_OP_constu 1, DW_OP_minus, DW_OP_stack_value] $r0
	.loc	2 549 25 is_stmt 1              @ Library/StdDriver/src/fmc.c:549:25
	cbz	r0, .LBB14_12
.Ltmp252:
@ %bb.2:                                @   in Loop: Header=BB14_1 Depth=1
	@DEBUG_VALUE: FMC_Write:tout <- [DW_OP_constu 1, DW_OP_minus, DW_OP_stack_value] $r0
	@DEBUG_VALUE: FMC_Write:u32Data <- [DW_OP_LLVM_entry_value 1] $r1
	@DEBUG_VALUE: FMC_Write:u32Addr <- [DW_OP_LLVM_entry_value 1] $r0
	@DEBUG_VALUE: FMC_Write:tout <- [DW_OP_constu 1, DW_OP_minus, DW_OP_stack_value] $r0
	.loc	2 549 34 is_stmt 0              @ Library/StdDriver/src/fmc.c:549:34
	ldr	r1, [r3]
	.loc	2 549 5                         @ Library/StdDriver/src/fmc.c:549:5
	lsls	r1, r1, #31
	beq	.LBB14_9
.Ltmp253:
@ %bb.3:                                @   in Loop: Header=BB14_1 Depth=1
	@DEBUG_VALUE: FMC_Write:tout <- [DW_OP_constu 1, DW_OP_minus, DW_OP_stack_value] $r0
	@DEBUG_VALUE: FMC_Write:u32Data <- [DW_OP_LLVM_entry_value 1] $r1
	@DEBUG_VALUE: FMC_Write:u32Addr <- [DW_OP_LLVM_entry_value 1] $r0
	@DEBUG_VALUE: FMC_Write:tout <- [DW_OP_constu 2, DW_OP_minus, DW_OP_stack_value] $r0
	.loc	2 549 34                        @ Library/StdDriver/src/fmc.c:549:34
	ldr	r1, [r3]
	.loc	2 549 5                         @ Library/StdDriver/src/fmc.c:549:5
	lsls	r1, r1, #31
	beq	.LBB14_8
.Ltmp254:
@ %bb.4:                                @   in Loop: Header=BB14_1 Depth=1
	@DEBUG_VALUE: FMC_Write:tout <- [DW_OP_constu 2, DW_OP_minus, DW_OP_stack_value] $r0
	@DEBUG_VALUE: FMC_Write:u32Data <- [DW_OP_LLVM_entry_value 1] $r1
	@DEBUG_VALUE: FMC_Write:u32Addr <- [DW_OP_LLVM_entry_value 1] $r0
	@DEBUG_VALUE: FMC_Write:tout <- [DW_OP_constu 2, DW_OP_minus, DW_OP_constu 1, DW_OP_minus, DW_OP_stack_value] $r0
	.loc	2 549 25                        @ Library/StdDriver/src/fmc.c:549:25
	cmp	r0, #2
	beq	.LBB14_12
.Ltmp255:
@ %bb.5:                                @   in Loop: Header=BB14_1 Depth=1
	@DEBUG_VALUE: FMC_Write:tout <- [DW_OP_constu 2, DW_OP_minus, DW_OP_constu 1, DW_OP_minus, DW_OP_stack_value] $r0
	@DEBUG_VALUE: FMC_Write:u32Data <- [DW_OP_LLVM_entry_value 1] $r1
	@DEBUG_VALUE: FMC_Write:u32Addr <- [DW_OP_LLVM_entry_value 1] $r0
	@DEBUG_VALUE: FMC_Write:tout <- [DW_OP_constu 3, DW_OP_minus, DW_OP_stack_value] $r0
	.loc	2 549 34                        @ Library/StdDriver/src/fmc.c:549:34
	ldr	r1, [r3]
	.loc	2 549 5                         @ Library/StdDriver/src/fmc.c:549:5
	lsls	r1, r1, #31
	beq	.LBB14_13
.Ltmp256:
@ %bb.6:                                @   in Loop: Header=BB14_1 Depth=1
	@DEBUG_VALUE: FMC_Write:tout <- [DW_OP_constu 3, DW_OP_minus, DW_OP_stack_value] $r0
	@DEBUG_VALUE: FMC_Write:u32Data <- [DW_OP_LLVM_entry_value 1] $r1
	@DEBUG_VALUE: FMC_Write:u32Addr <- [DW_OP_LLVM_entry_value 1] $r0
	@DEBUG_VALUE: FMC_Write:tout <- [DW_OP_constu 3, DW_OP_minus, DW_OP_constu 1, DW_OP_minus, DW_OP_stack_value] $r0
	.loc	2 549 34                        @ Library/StdDriver/src/fmc.c:549:34
	ldr	r1, [r3]
	.loc	2 549 17                        @ Library/StdDriver/src/fmc.c:549:17
	subs	r0, #4
.Ltmp257:
	@DEBUG_VALUE: FMC_Write:tout <- $r0
	.loc	2 549 5                         @ Library/StdDriver/src/fmc.c:549:5
	lsls	r1, r1, #31
	bne	.LBB14_1
.Ltmp258:
@ %bb.7:
	@DEBUG_VALUE: FMC_Write:tout <- $r0
	@DEBUG_VALUE: FMC_Write:u32Data <- [DW_OP_LLVM_entry_value 1] $r1
	@DEBUG_VALUE: FMC_Write:u32Addr <- [DW_OP_LLVM_entry_value 1] $r0
	.loc	2 550 14 is_stmt 1              @ Library/StdDriver/src/fmc.c:550:14
	adds	r0, #1
.Ltmp259:
	.loc	2 550 9 is_stmt 0               @ Library/StdDriver/src/fmc.c:550:9
	cmp	r0, #1
	bne	.LBB14_10
	b	.LBB14_12
.Ltmp260:
.LBB14_8:
	@DEBUG_VALUE: FMC_Write:tout <- [DW_OP_constu 2, DW_OP_minus, DW_OP_stack_value] $r0
	@DEBUG_VALUE: FMC_Write:u32Data <- [DW_OP_LLVM_entry_value 1] $r1
	@DEBUG_VALUE: FMC_Write:u32Addr <- [DW_OP_LLVM_entry_value 1] $r0
	.loc	2 550 14                        @ Library/StdDriver/src/fmc.c:550:14
	subs	r0, #1
.Ltmp261:
.LBB14_9:
	@DEBUG_VALUE: FMC_Write:u32Data <- [DW_OP_LLVM_entry_value 1] $r1
	@DEBUG_VALUE: FMC_Write:u32Addr <- [DW_OP_LLVM_entry_value 1] $r0
	.loc	2 550 9                         @ Library/StdDriver/src/fmc.c:550:9
	cmp	r0, #1
	beq	.LBB14_12
.Ltmp262:
.LBB14_10:
	@DEBUG_VALUE: FMC_Write:u32Data <- [DW_OP_LLVM_entry_value 1] $r1
	@DEBUG_VALUE: FMC_Write:u32Addr <- [DW_OP_LLVM_entry_value 1] $r0
	.loc	2 556 14 is_stmt 1              @ Library/StdDriver/src/fmc.c:556:14
	ldr	r0, [r3, #-128]
.Ltmp263:
	.loc	2 556 9 is_stmt 0               @ Library/StdDriver/src/fmc.c:556:9
	lsls	r0, r0, #25
	itt	pl
	movpl	r0, #0
	.loc	2 563 1 is_stmt 1               @ Library/StdDriver/src/fmc.c:563:1
	bxpl	lr
.Ltmp264:
.LBB14_11:
	@DEBUG_VALUE: FMC_Write:u32Data <- [DW_OP_LLVM_entry_value 1] $r1
	@DEBUG_VALUE: FMC_Write:u32Addr <- [DW_OP_LLVM_entry_value 1] $r0
	.loc	2 558 21                        @ Library/StdDriver/src/fmc.c:558:21
	ldr	r0, [r3, #-128]
	orr	r0, r0, #64
	str	r0, [r3, #-128]
.Ltmp265:
.LBB14_12:
	@DEBUG_VALUE: FMC_Write:u32Data <- [DW_OP_LLVM_entry_value 1] $r1
	@DEBUG_VALUE: FMC_Write:u32Addr <- [DW_OP_LLVM_entry_value 1] $r0
	.loc	2 0 21 is_stmt 0                @ Library/StdDriver/src/fmc.c:0:21
	mov.w	r0, #-1
	str.w	r0, [r12]
	.loc	2 563 1 is_stmt 1               @ Library/StdDriver/src/fmc.c:563:1
	bx	lr
.Ltmp266:
.LBB14_13:
	@DEBUG_VALUE: FMC_Write:tout <- [DW_OP_constu 3, DW_OP_minus, DW_OP_stack_value] $r0
	@DEBUG_VALUE: FMC_Write:u32Data <- [DW_OP_LLVM_entry_value 1] $r1
	@DEBUG_VALUE: FMC_Write:u32Addr <- [DW_OP_LLVM_entry_value 1] $r0
	.loc	2 550 14                        @ Library/StdDriver/src/fmc.c:550:14
	subs	r0, #2
.Ltmp267:
	.loc	2 550 9 is_stmt 0               @ Library/StdDriver/src/fmc.c:550:9
	cmp	r0, #1
	bne	.LBB14_10
	b	.LBB14_12
.Ltmp268:
.Lfunc_end14:
	.size	FMC_Write, .Lfunc_end14-FMC_Write
	.cfi_endproc
	.cantunwind
	.fnend
                                        @ -- End function
	.section	.text.FMC_Write8Bytes,"ax",%progbits
	.hidden	FMC_Write8Bytes                 @ -- Begin function FMC_Write8Bytes
	.globl	FMC_Write8Bytes
	.p2align	2
	.type	FMC_Write8Bytes,%function
	.code	16                              @ @FMC_Write8Bytes
	.thumb_func
FMC_Write8Bytes:
.Lfunc_begin15:
	.loc	2 578 0 is_stmt 1               @ Library/StdDriver/src/fmc.c:578:0
	.fnstart
	.cfi_startproc
@ %bb.0:
	@DEBUG_VALUE: FMC_Write8Bytes:u32addr <- $r0
	@DEBUG_VALUE: FMC_Write8Bytes:u32data0 <- $r1
	@DEBUG_VALUE: FMC_Write8Bytes:u32data1 <- $r2
	.save	{r7, lr}
	push	{r7, lr}
	.cfi_def_cfa_offset 8
	.cfi_offset lr, -4
	.cfi_offset r7, -8
.Ltmp269:
	.loc	2 581 22 prologue_end           @ Library/StdDriver/src/fmc.c:581:22
	movw	r12, :lower16:g_FMC_i32ErrCode
	movw	lr, #49344
	movt	r12, :upper16:g_FMC_i32ErrCode
	movs	r3, #0
	movt	lr, #16384
	str.w	r3, [r12]
	movs	r3, #97
	.loc	2 582 18                        @ Library/StdDriver/src/fmc.c:582:18
	str	r3, [lr, #-180]
	.loc	2 583 18                        @ Library/StdDriver/src/fmc.c:583:18
	str	r0, [lr, #-188]
	movs	r0, #1
.Ltmp270:
	@DEBUG_VALUE: FMC_Write8Bytes:u32addr <- [DW_OP_LLVM_entry_value 1] $r0
	.loc	2 584 18                        @ Library/StdDriver/src/fmc.c:584:18
	str	r1, [lr, #-64]
	.loc	2 585 18                        @ Library/StdDriver/src/fmc.c:585:18
	str	r2, [lr, #-60]
	.loc	2 586 18                        @ Library/StdDriver/src/fmc.c:586:18
	str	r0, [lr, #-176]
	.loc	2 588 12                        @ Library/StdDriver/src/fmc.c:588:12
	movw	r0, :lower16:SystemCoreClock
	movt	r0, :upper16:SystemCoreClock
	ldr	r0, [r0]
	movw	r1, #52429
.Ltmp271:
	@DEBUG_VALUE: FMC_Write8Bytes:u32data0 <- [DW_OP_LLVM_entry_value 1] $r1
	.loc	2 0 12 is_stmt 0                @ Library/StdDriver/src/fmc.c:0:12
	movt	r1, #52428
	.loc	2 588 12                        @ Library/StdDriver/src/fmc.c:588:12
	umull	r0, r1, r0, r1
	mvn	r0, #1
	and.w	r0, r0, r1, lsr #2
.Ltmp272:
	@DEBUG_VALUE: FMC_Write8Bytes:tout <- $r0
	.p2align	2
.LBB15_1:                               @ =>This Inner Loop Header: Depth=1
	@DEBUG_VALUE: FMC_Write8Bytes:tout <- $r0
	@DEBUG_VALUE: FMC_Write8Bytes:u32data0 <- [DW_OP_LLVM_entry_value 1] $r1
	@DEBUG_VALUE: FMC_Write8Bytes:u32addr <- [DW_OP_LLVM_entry_value 1] $r0
	@DEBUG_VALUE: FMC_Write8Bytes:u32data1 <- $r2
	@DEBUG_VALUE: FMC_Write8Bytes:tout <- [DW_OP_constu 1, DW_OP_minus, DW_OP_stack_value] $r0
	.loc	2 589 25 is_stmt 1              @ Library/StdDriver/src/fmc.c:589:25
	cbz	r0, .LBB15_12
.Ltmp273:
@ %bb.2:                                @   in Loop: Header=BB15_1 Depth=1
	@DEBUG_VALUE: FMC_Write8Bytes:tout <- [DW_OP_constu 1, DW_OP_minus, DW_OP_stack_value] $r0
	@DEBUG_VALUE: FMC_Write8Bytes:u32data0 <- [DW_OP_LLVM_entry_value 1] $r1
	@DEBUG_VALUE: FMC_Write8Bytes:u32addr <- [DW_OP_LLVM_entry_value 1] $r0
	@DEBUG_VALUE: FMC_Write8Bytes:u32data1 <- $r2
	@DEBUG_VALUE: FMC_Write8Bytes:tout <- [DW_OP_constu 1, DW_OP_minus, DW_OP_stack_value] $r0
	.loc	2 589 34 is_stmt 0              @ Library/StdDriver/src/fmc.c:589:34
	ldr.w	r1, [lr]
	.loc	2 589 5                         @ Library/StdDriver/src/fmc.c:589:5
	lsls	r1, r1, #31
	beq	.LBB15_9
.Ltmp274:
@ %bb.3:                                @   in Loop: Header=BB15_1 Depth=1
	@DEBUG_VALUE: FMC_Write8Bytes:tout <- [DW_OP_constu 1, DW_OP_minus, DW_OP_stack_value] $r0
	@DEBUG_VALUE: FMC_Write8Bytes:u32data0 <- [DW_OP_LLVM_entry_value 1] $r1
	@DEBUG_VALUE: FMC_Write8Bytes:u32addr <- [DW_OP_LLVM_entry_value 1] $r0
	@DEBUG_VALUE: FMC_Write8Bytes:u32data1 <- $r2
	@DEBUG_VALUE: FMC_Write8Bytes:tout <- [DW_OP_constu 2, DW_OP_minus, DW_OP_stack_value] $r0
	.loc	2 589 34                        @ Library/StdDriver/src/fmc.c:589:34
	ldr.w	r1, [lr]
	.loc	2 589 5                         @ Library/StdDriver/src/fmc.c:589:5
	lsls	r1, r1, #31
	beq	.LBB15_8
.Ltmp275:
@ %bb.4:                                @   in Loop: Header=BB15_1 Depth=1
	@DEBUG_VALUE: FMC_Write8Bytes:tout <- [DW_OP_constu 2, DW_OP_minus, DW_OP_stack_value] $r0
	@DEBUG_VALUE: FMC_Write8Bytes:u32data0 <- [DW_OP_LLVM_entry_value 1] $r1
	@DEBUG_VALUE: FMC_Write8Bytes:u32addr <- [DW_OP_LLVM_entry_value 1] $r0
	@DEBUG_VALUE: FMC_Write8Bytes:u32data1 <- $r2
	@DEBUG_VALUE: FMC_Write8Bytes:tout <- [DW_OP_constu 2, DW_OP_minus, DW_OP_constu 1, DW_OP_minus, DW_OP_stack_value] $r0
	.loc	2 589 25                        @ Library/StdDriver/src/fmc.c:589:25
	cmp	r0, #2
	beq	.LBB15_12
.Ltmp276:
@ %bb.5:                                @   in Loop: Header=BB15_1 Depth=1
	@DEBUG_VALUE: FMC_Write8Bytes:tout <- [DW_OP_constu 2, DW_OP_minus, DW_OP_constu 1, DW_OP_minus, DW_OP_stack_value] $r0
	@DEBUG_VALUE: FMC_Write8Bytes:u32data0 <- [DW_OP_LLVM_entry_value 1] $r1
	@DEBUG_VALUE: FMC_Write8Bytes:u32addr <- [DW_OP_LLVM_entry_value 1] $r0
	@DEBUG_VALUE: FMC_Write8Bytes:u32data1 <- $r2
	@DEBUG_VALUE: FMC_Write8Bytes:tout <- [DW_OP_constu 3, DW_OP_minus, DW_OP_stack_value] $r0
	.loc	2 589 34                        @ Library/StdDriver/src/fmc.c:589:34
	ldr.w	r1, [lr]
	.loc	2 589 5                         @ Library/StdDriver/src/fmc.c:589:5
	lsls	r1, r1, #31
	beq	.LBB15_13
.Ltmp277:
@ %bb.6:                                @   in Loop: Header=BB15_1 Depth=1
	@DEBUG_VALUE: FMC_Write8Bytes:tout <- [DW_OP_constu 3, DW_OP_minus, DW_OP_stack_value] $r0
	@DEBUG_VALUE: FMC_Write8Bytes:u32data0 <- [DW_OP_LLVM_entry_value 1] $r1
	@DEBUG_VALUE: FMC_Write8Bytes:u32addr <- [DW_OP_LLVM_entry_value 1] $r0
	@DEBUG_VALUE: FMC_Write8Bytes:u32data1 <- $r2
	@DEBUG_VALUE: FMC_Write8Bytes:tout <- [DW_OP_constu 3, DW_OP_minus, DW_OP_constu 1, DW_OP_minus, DW_OP_stack_value] $r0
	.loc	2 589 34                        @ Library/StdDriver/src/fmc.c:589:34
	ldr.w	r1, [lr]
	.loc	2 589 17                        @ Library/StdDriver/src/fmc.c:589:17
	subs	r0, #4
.Ltmp278:
	@DEBUG_VALUE: FMC_Write8Bytes:tout <- $r0
	.loc	2 589 5                         @ Library/StdDriver/src/fmc.c:589:5
	lsls	r1, r1, #31
	bne	.LBB15_1
.Ltmp279:
@ %bb.7:
	@DEBUG_VALUE: FMC_Write8Bytes:tout <- $r0
	@DEBUG_VALUE: FMC_Write8Bytes:u32data0 <- [DW_OP_LLVM_entry_value 1] $r1
	@DEBUG_VALUE: FMC_Write8Bytes:u32addr <- [DW_OP_LLVM_entry_value 1] $r0
	@DEBUG_VALUE: FMC_Write8Bytes:u32data1 <- $r2
	.loc	2 590 14 is_stmt 1              @ Library/StdDriver/src/fmc.c:590:14
	adds	r0, #1
.Ltmp280:
	.loc	2 590 9 is_stmt 0               @ Library/StdDriver/src/fmc.c:590:9
	cmp	r0, #1
	bne	.LBB15_10
	b	.LBB15_12
.Ltmp281:
.LBB15_8:
	@DEBUG_VALUE: FMC_Write8Bytes:tout <- [DW_OP_constu 2, DW_OP_minus, DW_OP_stack_value] $r0
	@DEBUG_VALUE: FMC_Write8Bytes:u32data0 <- [DW_OP_LLVM_entry_value 1] $r1
	@DEBUG_VALUE: FMC_Write8Bytes:u32addr <- [DW_OP_LLVM_entry_value 1] $r0
	@DEBUG_VALUE: FMC_Write8Bytes:u32data1 <- $r2
	.loc	2 590 14                        @ Library/StdDriver/src/fmc.c:590:14
	subs	r0, #1
.Ltmp282:
.LBB15_9:
	@DEBUG_VALUE: FMC_Write8Bytes:u32data0 <- [DW_OP_LLVM_entry_value 1] $r1
	@DEBUG_VALUE: FMC_Write8Bytes:u32addr <- [DW_OP_LLVM_entry_value 1] $r0
	@DEBUG_VALUE: FMC_Write8Bytes:u32data1 <- $r2
	.loc	2 590 9                         @ Library/StdDriver/src/fmc.c:590:9
	cmp	r0, #1
	beq	.LBB15_12
.Ltmp283:
.LBB15_10:
	@DEBUG_VALUE: FMC_Write8Bytes:u32data0 <- [DW_OP_LLVM_entry_value 1] $r1
	@DEBUG_VALUE: FMC_Write8Bytes:u32addr <- [DW_OP_LLVM_entry_value 1] $r0
	@DEBUG_VALUE: FMC_Write8Bytes:u32data1 <- $r2
	.loc	2 596 14 is_stmt 1              @ Library/StdDriver/src/fmc.c:596:14
	ldr	r0, [lr, #-128]
.Ltmp284:
	.loc	2 596 9 is_stmt 0               @ Library/StdDriver/src/fmc.c:596:9
	lsls	r0, r0, #25
	itt	pl
	movpl	r0, #0
	.loc	2 603 1 epilogue_begin is_stmt 1 @ Library/StdDriver/src/fmc.c:603:1
	poppl	{r7, pc}
.Ltmp285:
.LBB15_11:
	@DEBUG_VALUE: FMC_Write8Bytes:u32data0 <- [DW_OP_LLVM_entry_value 1] $r1
	@DEBUG_VALUE: FMC_Write8Bytes:u32addr <- [DW_OP_LLVM_entry_value 1] $r0
	@DEBUG_VALUE: FMC_Write8Bytes:u32data1 <- $r2
	.loc	2 598 21                        @ Library/StdDriver/src/fmc.c:598:21
	ldr	r0, [lr, #-128]
	orr	r0, r0, #64
	str	r0, [lr, #-128]
.Ltmp286:
.LBB15_12:
	@DEBUG_VALUE: FMC_Write8Bytes:u32data0 <- [DW_OP_LLVM_entry_value 1] $r1
	@DEBUG_VALUE: FMC_Write8Bytes:u32addr <- [DW_OP_LLVM_entry_value 1] $r0
	@DEBUG_VALUE: FMC_Write8Bytes:u32data1 <- $r2
	.loc	2 0 21 is_stmt 0                @ Library/StdDriver/src/fmc.c:0:21
	mov.w	r0, #-1
	str.w	r0, [r12]
	.loc	2 603 1 epilogue_begin is_stmt 1 @ Library/StdDriver/src/fmc.c:603:1
	pop	{r7, pc}
.Ltmp287:
.LBB15_13:
	@DEBUG_VALUE: FMC_Write8Bytes:tout <- [DW_OP_constu 3, DW_OP_minus, DW_OP_stack_value] $r0
	@DEBUG_VALUE: FMC_Write8Bytes:u32data0 <- [DW_OP_LLVM_entry_value 1] $r1
	@DEBUG_VALUE: FMC_Write8Bytes:u32addr <- [DW_OP_LLVM_entry_value 1] $r0
	@DEBUG_VALUE: FMC_Write8Bytes:u32data1 <- $r2
	.loc	2 590 14                        @ Library/StdDriver/src/fmc.c:590:14
	subs	r0, #2
.Ltmp288:
	.loc	2 590 9 is_stmt 0               @ Library/StdDriver/src/fmc.c:590:9
	cmp	r0, #1
	bne	.LBB15_10
	b	.LBB15_12
.Ltmp289:
.Lfunc_end15:
	.size	FMC_Write8Bytes, .Lfunc_end15-FMC_Write8Bytes
	.cfi_endproc
	.cantunwind
	.fnend
                                        @ -- End function
	.section	.text.FMC_WriteMultiple,"ax",%progbits
	.hidden	FMC_WriteMultiple               @ -- Begin function FMC_WriteMultiple
	.globl	FMC_WriteMultiple
	.p2align	2
	.type	FMC_WriteMultiple,%function
	.code	16                              @ @FMC_WriteMultiple
	.thumb_func
FMC_WriteMultiple:
.Lfunc_begin16:
	.loc	2 621 0 is_stmt 1               @ Library/StdDriver/src/fmc.c:621:0
	.fnstart
	.cfi_startproc
@ %bb.0:
	@DEBUG_VALUE: FMC_WriteMultiple:u32Addr <- $r0
	@DEBUG_VALUE: FMC_WriteMultiple:pu32Buf <- $r1
	@DEBUG_VALUE: FMC_WriteMultiple:u32Len <- $r2
	.save	{r4, r5, r6, r7, r8, r9, r10, r11, lr}
	push.w	{r4, r5, r6, r7, r8, r9, r10, r11, lr}
	.cfi_def_cfa_offset 36
	.cfi_offset lr, -4
	.cfi_offset r11, -8
	.cfi_offset r10, -12
	.cfi_offset r9, -16
	.cfi_offset r8, -20
	.cfi_offset r7, -24
	.cfi_offset r6, -28
	.cfi_offset r5, -32
	.cfi_offset r4, -36
	.pad	#12
	sub	sp, #12
	.cfi_def_cfa_offset 48
.Ltmp290:
	@DEBUG_VALUE: FMC_WriteMultiple:retval <- 0
	movs	r3, #7
.Ltmp291:
	.loc	2 625 22 prologue_end           @ Library/StdDriver/src/fmc.c:625:22
	movw	r7, :lower16:g_FMC_i32ErrCode
	movt	r3, #65528
	movt	r7, :upper16:g_FMC_i32ErrCode
.Ltmp292:
	.loc	2 627 36                        @ Library/StdDriver/src/fmc.c:627:36
	tst	r0, r3
	mov.w	r3, #0
.Ltmp293:
	.loc	2 625 22                        @ Library/StdDriver/src/fmc.c:625:22
	str	r3, [r7]
.Ltmp294:
	.loc	2 627 36                        @ Library/StdDriver/src/fmc.c:627:36
	beq	.LBB16_2
.Ltmp295:
@ %bb.1:
	@DEBUG_VALUE: FMC_WriteMultiple:retval <- 0
	@DEBUG_VALUE: FMC_WriteMultiple:u32Len <- $r2
	@DEBUG_VALUE: FMC_WriteMultiple:pu32Buf <- $r1
	@DEBUG_VALUE: FMC_WriteMultiple:u32Addr <- $r0
	.loc	2 0 36 is_stmt 0                @ Library/StdDriver/src/fmc.c:0:36
	mvn	r2, #1
.Ltmp296:
	@DEBUG_VALUE: FMC_WriteMultiple:u32Len <- [DW_OP_LLVM_entry_value 1] $r2
	.loc	2 629 26 is_stmt 1              @ Library/StdDriver/src/fmc.c:629:26
	str	r2, [r7]
	b	.LBB16_50
.Ltmp297:
.LBB16_2:
	@DEBUG_VALUE: FMC_WriteMultiple:retval <- 0
	@DEBUG_VALUE: FMC_WriteMultiple:u32Len <- $r2
	@DEBUG_VALUE: FMC_WriteMultiple:pu32Buf <- $r1
	@DEBUG_VALUE: FMC_WriteMultiple:u32Addr <- $r0
	.loc	2 633 21                        @ Library/StdDriver/src/fmc.c:633:21
	bics	r11, r2, #7
.Ltmp298:
	@DEBUG_VALUE: FMC_WriteMultiple:idx <- 0
	@DEBUG_VALUE: FMC_WriteMultiple:retval <- 0
	@DEBUG_VALUE: FMC_WriteMultiple:u32Len <- $r11
	@DEBUG_VALUE: FMC_WriteMultiple:u32Addr <- undef
	.loc	2 637 5                         @ Library/StdDriver/src/fmc.c:637:5
	beq.w	.LBB16_49
.Ltmp299:
@ %bb.3:
	@DEBUG_VALUE: FMC_WriteMultiple:u32Len <- $r11
	@DEBUG_VALUE: FMC_WriteMultiple:idx <- 0
	@DEBUG_VALUE: FMC_WriteMultiple:retval <- 0
	@DEBUG_VALUE: FMC_WriteMultiple:pu32Buf <- $r1
	.loc	2 0 5 is_stmt 0                 @ Library/StdDriver/src/fmc.c:0:5
	movw	r3, #49344
	add.w	r2, r1, #28
	movt	r3, #16384
	str	r2, [sp, #8]                    @ 4-byte Spill
	movs	r2, #0
	mov.w	r12, #39
	mov.w	lr, #1
	movs	r6, #0
.Ltmp300:
.LBB16_4:                               @ =>This Loop Header: Depth=1
                                        @     Child Loop BB16_5 Depth 2
                                        @       Child Loop BB16_6 Depth 3
                                        @       Child Loop BB16_19 Depth 3
                                        @     Child Loop BB16_37 Depth 2
	@DEBUG_VALUE: FMC_WriteMultiple:u32Len <- $r11
	@DEBUG_VALUE: FMC_WriteMultiple:pu32Buf <- $r1
	.loc	2 639 22 is_stmt 1              @ Library/StdDriver/src/fmc.c:639:22
	str	r0, [r3, #-188]
.Ltmp301:
	@DEBUG_VALUE: FMC_WriteMultiple:idx <- [DW_OP_plus_uconst 1, DW_OP_stack_value] $r8
	.loc	2 640 24                        @ Library/StdDriver/src/fmc.c:640:24
	ldr.w	r4, [r1, r6, lsl #2]
	add.w	r5, r1, r6, lsl #2
	.loc	2 640 22 is_stmt 0              @ Library/StdDriver/src/fmc.c:640:22
	str	r4, [r3, #-64]
.Ltmp302:
	@DEBUG_VALUE: FMC_WriteMultiple:idx <- [DW_OP_plus_uconst 2, DW_OP_stack_value] $r8
	.loc	2 641 24 is_stmt 1              @ Library/StdDriver/src/fmc.c:641:24
	ldr	r4, [r5, #4]
	mov	r9, r2
.Ltmp303:
	@DEBUG_VALUE: FMC_WriteMultiple:idx <- $r8
	@DEBUG_VALUE: FMC_WriteMultiple:retval <- $r9
	@DEBUG_VALUE: FMC_WriteMultiple:u32Len <- $r11
	@DEBUG_VALUE: FMC_WriteMultiple:u32Addr <- $r0
	.loc	2 641 22 is_stmt 0              @ Library/StdDriver/src/fmc.c:641:22
	str	r4, [r3, #-60]
.Ltmp304:
	@DEBUG_VALUE: FMC_WriteMultiple:idx <- [DW_OP_plus_uconst 3, DW_OP_stack_value] $r8
	.loc	2 642 24 is_stmt 1              @ Library/StdDriver/src/fmc.c:642:24
	ldr	r4, [r5, #8]
.Ltmp305:
	.loc	2 649 9                         @ Library/StdDriver/src/fmc.c:649:9
	sub.w	r2, r11, #512
.Ltmp306:
	.loc	2 642 22                        @ Library/StdDriver/src/fmc.c:642:22
	str	r4, [r3, #-56]
.Ltmp307:
	@DEBUG_VALUE: FMC_WriteMultiple:idx <- [DW_OP_plus_uconst 4, DW_OP_stack_value] $r8
	.loc	2 643 24                        @ Library/StdDriver/src/fmc.c:643:24
	ldr	r7, [r5, #12]
	mov	r8, r6
.Ltmp308:
	.loc	2 643 22 is_stmt 0              @ Library/StdDriver/src/fmc.c:643:22
	str	r7, [r3, #-52]
	.loc	2 644 22 is_stmt 1              @ Library/StdDriver/src/fmc.c:644:22
	str	r12, [r3, #-180]
	.loc	2 645 22                        @ Library/StdDriver/src/fmc.c:645:22
	str	lr, [r3, #-176]
.Ltmp309:
	@DEBUG_VALUE: FMC_WriteMultiple:i <- 16
	@DEBUG_VALUE: FMC_WriteMultiple:retval <- [DW_OP_plus_uconst 16, DW_OP_stack_value] $r9
	@DEBUG_VALUE: FMC_WriteMultiple:u32Len <- [DW_OP_constu 16, DW_OP_minus, DW_OP_stack_value] $r11
	.loc	2 0 0 is_stmt 0                 @ Library/StdDriver/src/fmc.c:0:0
	adds	r6, #4
.Ltmp310:
	@DEBUG_VALUE: FMC_WriteMultiple:idx <- $r6
	.loc	2 649 9 is_stmt 1               @ Library/StdDriver/src/fmc.c:649:9
	str	r2, [sp]                        @ 4-byte Spill
	add.w	r2, r9, #512
	movs	r7, #16
.Ltmp311:
.LBB16_5:                               @   Parent Loop BB16_4 Depth=1
                                        @ =>  This Loop Header: Depth=2
                                        @       Child Loop BB16_6 Depth 3
                                        @       Child Loop BB16_19 Depth 3
	@DEBUG_VALUE: FMC_WriteMultiple:idx <- $r6
	@DEBUG_VALUE: FMC_WriteMultiple:u32Len <- [DW_OP_constu 16, DW_OP_minus, DW_OP_stack_value] $r11
	@DEBUG_VALUE: FMC_WriteMultiple:retval <- [DW_OP_plus_uconst 16, DW_OP_stack_value] $r9
	@DEBUG_VALUE: FMC_WriteMultiple:pu32Buf <- $r1
	@DEBUG_VALUE: FMC_WriteMultiple:u32Addr <- $r0
	.loc	2 651 20                        @ Library/StdDriver/src/fmc.c:651:20
	movw	r5, :lower16:SystemCoreClock
	movt	r5, :upper16:SystemCoreClock
	ldr	r4, [r5]
	movw	r5, #52429
	movt	r5, #52428
	umull	r4, r5, r4, r5
	mov	r10, r6
.Ltmp312:
	@DEBUG_VALUE: FMC_WriteMultiple:idx <- $r10
	@DEBUG_VALUE: FMC_WriteMultiple:idx <- $r10
	mvn	r6, #1
.Ltmp313:
	.loc	2 0 0 is_stmt 0                 @ Library/StdDriver/src/fmc.c:0:0
	sub.w	r12, r11, #16
	add.w	r4, r9, #16
.Ltmp314:
	@DEBUG_VALUE: FMC_WriteMultiple:i <- $r7
	.loc	2 651 20                        @ Library/StdDriver/src/fmc.c:651:20
	and.w	r5, r6, r5, lsr #2
.Ltmp315:
	@DEBUG_VALUE: FMC_WriteMultiple:tout <- $r5
	.p2align	2
.LBB16_6:                               @   Parent Loop BB16_4 Depth=1
                                        @     Parent Loop BB16_5 Depth=2
                                        @ =>    This Inner Loop Header: Depth=3
	@DEBUG_VALUE: FMC_WriteMultiple:tout <- $r5
	@DEBUG_VALUE: FMC_WriteMultiple:i <- $r7
	@DEBUG_VALUE: FMC_WriteMultiple:idx <- $r10
	@DEBUG_VALUE: FMC_WriteMultiple:u32Len <- [DW_OP_constu 16, DW_OP_minus, DW_OP_stack_value] $r11
	@DEBUG_VALUE: FMC_WriteMultiple:retval <- [DW_OP_plus_uconst 16, DW_OP_stack_value] $r9
	@DEBUG_VALUE: FMC_WriteMultiple:pu32Buf <- $r1
	@DEBUG_VALUE: FMC_WriteMultiple:u32Addr <- $r0
	@DEBUG_VALUE: FMC_WriteMultiple:tout <- [DW_OP_constu 1, DW_OP_minus, DW_OP_stack_value] $r5
	.loc	2 652 33 is_stmt 1              @ Library/StdDriver/src/fmc.c:652:33
	cmp	r5, #0
	beq.w	.LBB16_48
.Ltmp316:
@ %bb.7:                                @   in Loop: Header=BB16_6 Depth=3
	@DEBUG_VALUE: FMC_WriteMultiple:tout <- [DW_OP_constu 1, DW_OP_minus, DW_OP_stack_value] $r5
	@DEBUG_VALUE: FMC_WriteMultiple:i <- $r7
	@DEBUG_VALUE: FMC_WriteMultiple:idx <- $r10
	@DEBUG_VALUE: FMC_WriteMultiple:u32Len <- [DW_OP_constu 16, DW_OP_minus, DW_OP_stack_value] $r11
	@DEBUG_VALUE: FMC_WriteMultiple:retval <- [DW_OP_plus_uconst 16, DW_OP_stack_value] $r9
	@DEBUG_VALUE: FMC_WriteMultiple:pu32Buf <- $r1
	@DEBUG_VALUE: FMC_WriteMultiple:u32Addr <- $r0
	@DEBUG_VALUE: FMC_WriteMultiple:tout <- [DW_OP_constu 1, DW_OP_minus, DW_OP_stack_value] $r5
	.loc	2 652 42 is_stmt 0              @ Library/StdDriver/src/fmc.c:652:42
	ldr	r6, [r3]
	.loc	2 652 13                        @ Library/StdDriver/src/fmc.c:652:13
	tst.w	r6, #48
	beq	.LBB16_15
.Ltmp317:
@ %bb.8:                                @   in Loop: Header=BB16_6 Depth=3
	@DEBUG_VALUE: FMC_WriteMultiple:tout <- [DW_OP_constu 1, DW_OP_minus, DW_OP_stack_value] $r5
	@DEBUG_VALUE: FMC_WriteMultiple:i <- $r7
	@DEBUG_VALUE: FMC_WriteMultiple:idx <- $r10
	@DEBUG_VALUE: FMC_WriteMultiple:u32Len <- [DW_OP_constu 16, DW_OP_minus, DW_OP_stack_value] $r11
	@DEBUG_VALUE: FMC_WriteMultiple:retval <- [DW_OP_plus_uconst 16, DW_OP_stack_value] $r9
	@DEBUG_VALUE: FMC_WriteMultiple:pu32Buf <- $r1
	@DEBUG_VALUE: FMC_WriteMultiple:u32Addr <- $r0
	@DEBUG_VALUE: FMC_WriteMultiple:tout <- [DW_OP_constu 2, DW_OP_minus, DW_OP_stack_value] $r5
	.loc	2 652 42                        @ Library/StdDriver/src/fmc.c:652:42
	ldr	r6, [r3]
	.loc	2 652 13                        @ Library/StdDriver/src/fmc.c:652:13
	tst.w	r6, #48
	beq	.LBB16_13
.Ltmp318:
@ %bb.9:                                @   in Loop: Header=BB16_6 Depth=3
	@DEBUG_VALUE: FMC_WriteMultiple:tout <- [DW_OP_constu 2, DW_OP_minus, DW_OP_stack_value] $r5
	@DEBUG_VALUE: FMC_WriteMultiple:i <- $r7
	@DEBUG_VALUE: FMC_WriteMultiple:idx <- $r10
	@DEBUG_VALUE: FMC_WriteMultiple:u32Len <- [DW_OP_constu 16, DW_OP_minus, DW_OP_stack_value] $r11
	@DEBUG_VALUE: FMC_WriteMultiple:retval <- [DW_OP_plus_uconst 16, DW_OP_stack_value] $r9
	@DEBUG_VALUE: FMC_WriteMultiple:pu32Buf <- $r1
	@DEBUG_VALUE: FMC_WriteMultiple:u32Addr <- $r0
	@DEBUG_VALUE: FMC_WriteMultiple:tout <- [DW_OP_constu 2, DW_OP_minus, DW_OP_constu 1, DW_OP_minus, DW_OP_stack_value] $r5
	.loc	2 652 33                        @ Library/StdDriver/src/fmc.c:652:33
	cmp	r5, #2
	beq.w	.LBB16_48
.Ltmp319:
@ %bb.10:                               @   in Loop: Header=BB16_6 Depth=3
	@DEBUG_VALUE: FMC_WriteMultiple:tout <- [DW_OP_constu 2, DW_OP_minus, DW_OP_constu 1, DW_OP_minus, DW_OP_stack_value] $r5
	@DEBUG_VALUE: FMC_WriteMultiple:i <- $r7
	@DEBUG_VALUE: FMC_WriteMultiple:idx <- $r10
	@DEBUG_VALUE: FMC_WriteMultiple:u32Len <- [DW_OP_constu 16, DW_OP_minus, DW_OP_stack_value] $r11
	@DEBUG_VALUE: FMC_WriteMultiple:retval <- [DW_OP_plus_uconst 16, DW_OP_stack_value] $r9
	@DEBUG_VALUE: FMC_WriteMultiple:pu32Buf <- $r1
	@DEBUG_VALUE: FMC_WriteMultiple:u32Addr <- $r0
	@DEBUG_VALUE: FMC_WriteMultiple:tout <- [DW_OP_constu 3, DW_OP_minus, DW_OP_stack_value] $r5
	.loc	2 652 42                        @ Library/StdDriver/src/fmc.c:652:42
	ldr	r6, [r3]
	.loc	2 652 13                        @ Library/StdDriver/src/fmc.c:652:13
	tst.w	r6, #48
	beq	.LBB16_14
.Ltmp320:
@ %bb.11:                               @   in Loop: Header=BB16_6 Depth=3
	@DEBUG_VALUE: FMC_WriteMultiple:tout <- [DW_OP_constu 3, DW_OP_minus, DW_OP_stack_value] $r5
	@DEBUG_VALUE: FMC_WriteMultiple:i <- $r7
	@DEBUG_VALUE: FMC_WriteMultiple:idx <- $r10
	@DEBUG_VALUE: FMC_WriteMultiple:u32Len <- [DW_OP_constu 16, DW_OP_minus, DW_OP_stack_value] $r11
	@DEBUG_VALUE: FMC_WriteMultiple:retval <- [DW_OP_plus_uconst 16, DW_OP_stack_value] $r9
	@DEBUG_VALUE: FMC_WriteMultiple:pu32Buf <- $r1
	@DEBUG_VALUE: FMC_WriteMultiple:u32Addr <- $r0
	@DEBUG_VALUE: FMC_WriteMultiple:tout <- [DW_OP_constu 3, DW_OP_minus, DW_OP_constu 1, DW_OP_minus, DW_OP_stack_value] $r5
	.loc	2 652 42                        @ Library/StdDriver/src/fmc.c:652:42
	ldr	r6, [r3]
	.loc	2 652 25                        @ Library/StdDriver/src/fmc.c:652:25
	subs	r5, #4
.Ltmp321:
	@DEBUG_VALUE: FMC_WriteMultiple:tout <- $r5
	.loc	2 652 13                        @ Library/StdDriver/src/fmc.c:652:13
	tst.w	r6, #48
	bne	.LBB16_6
.Ltmp322:
@ %bb.12:                               @   in Loop: Header=BB16_5 Depth=2
	@DEBUG_VALUE: FMC_WriteMultiple:tout <- $r5
	@DEBUG_VALUE: FMC_WriteMultiple:i <- $r7
	@DEBUG_VALUE: FMC_WriteMultiple:idx <- $r10
	@DEBUG_VALUE: FMC_WriteMultiple:u32Len <- [DW_OP_constu 16, DW_OP_minus, DW_OP_stack_value] $r11
	@DEBUG_VALUE: FMC_WriteMultiple:retval <- [DW_OP_plus_uconst 16, DW_OP_stack_value] $r9
	@DEBUG_VALUE: FMC_WriteMultiple:pu32Buf <- $r1
	@DEBUG_VALUE: FMC_WriteMultiple:u32Addr <- $r0
	.loc	2 653 22 is_stmt 1              @ Library/StdDriver/src/fmc.c:653:22
	adds	r5, #1
.Ltmp323:
	.loc	2 0 22 is_stmt 0                @ Library/StdDriver/src/fmc.c:0:22
	b	.LBB16_15
.Ltmp324:
.LBB16_13:                              @   in Loop: Header=BB16_5 Depth=2
	@DEBUG_VALUE: FMC_WriteMultiple:tout <- [DW_OP_constu 2, DW_OP_minus, DW_OP_stack_value] $r5
	@DEBUG_VALUE: FMC_WriteMultiple:i <- $r7
	@DEBUG_VALUE: FMC_WriteMultiple:idx <- $r10
	@DEBUG_VALUE: FMC_WriteMultiple:u32Len <- [DW_OP_constu 16, DW_OP_minus, DW_OP_stack_value] $r11
	@DEBUG_VALUE: FMC_WriteMultiple:retval <- [DW_OP_plus_uconst 16, DW_OP_stack_value] $r9
	@DEBUG_VALUE: FMC_WriteMultiple:pu32Buf <- $r1
	@DEBUG_VALUE: FMC_WriteMultiple:u32Addr <- $r0
	.loc	2 653 22                        @ Library/StdDriver/src/fmc.c:653:22
	subs	r5, #1
.Ltmp325:
	.loc	2 0 22                          @ Library/StdDriver/src/fmc.c:0:22
	b	.LBB16_15
.Ltmp326:
.LBB16_14:                              @   in Loop: Header=BB16_5 Depth=2
	@DEBUG_VALUE: FMC_WriteMultiple:tout <- [DW_OP_constu 3, DW_OP_minus, DW_OP_stack_value] $r5
	@DEBUG_VALUE: FMC_WriteMultiple:i <- $r7
	@DEBUG_VALUE: FMC_WriteMultiple:idx <- $r10
	@DEBUG_VALUE: FMC_WriteMultiple:u32Len <- [DW_OP_constu 16, DW_OP_minus, DW_OP_stack_value] $r11
	@DEBUG_VALUE: FMC_WriteMultiple:retval <- [DW_OP_plus_uconst 16, DW_OP_stack_value] $r9
	@DEBUG_VALUE: FMC_WriteMultiple:pu32Buf <- $r1
	@DEBUG_VALUE: FMC_WriteMultiple:u32Addr <- $r0
	.loc	2 653 22                        @ Library/StdDriver/src/fmc.c:653:22
	subs	r5, #2
.Ltmp327:
.LBB16_15:                              @   in Loop: Header=BB16_5 Depth=2
	@DEBUG_VALUE: FMC_WriteMultiple:i <- $r7
	@DEBUG_VALUE: FMC_WriteMultiple:idx <- $r10
	@DEBUG_VALUE: FMC_WriteMultiple:u32Len <- [DW_OP_constu 16, DW_OP_minus, DW_OP_stack_value] $r11
	@DEBUG_VALUE: FMC_WriteMultiple:retval <- [DW_OP_plus_uconst 16, DW_OP_stack_value] $r9
	@DEBUG_VALUE: FMC_WriteMultiple:pu32Buf <- $r1
	@DEBUG_VALUE: FMC_WriteMultiple:u32Addr <- $r0
	.loc	2 653 17                        @ Library/StdDriver/src/fmc.c:653:17
	cmp	r5, #1
	beq.w	.LBB16_48
.Ltmp328:
@ %bb.16:                               @   in Loop: Header=BB16_5 Depth=2
	@DEBUG_VALUE: FMC_WriteMultiple:i <- $r7
	@DEBUG_VALUE: FMC_WriteMultiple:idx <- $r10
	@DEBUG_VALUE: FMC_WriteMultiple:u32Len <- [DW_OP_constu 16, DW_OP_minus, DW_OP_stack_value] $r11
	@DEBUG_VALUE: FMC_WriteMultiple:retval <- [DW_OP_plus_uconst 16, DW_OP_stack_value] $r9
	@DEBUG_VALUE: FMC_WriteMultiple:pu32Buf <- $r1
	@DEBUG_VALUE: FMC_WriteMultiple:u32Addr <- $r0
	.loc	2 658 24 is_stmt 1              @ Library/StdDriver/src/fmc.c:658:24
	ldr	r5, [r3]
.Ltmp329:
	.loc	2 658 17 is_stmt 0              @ Library/StdDriver/src/fmc.c:658:17
	lsls	r5, r5, #31
	beq	.LBB16_33
.Ltmp330:
@ %bb.17:                               @   in Loop: Header=BB16_5 Depth=2
	@DEBUG_VALUE: FMC_WriteMultiple:i <- $r7
	@DEBUG_VALUE: FMC_WriteMultiple:idx <- $r10
	@DEBUG_VALUE: FMC_WriteMultiple:u32Len <- [DW_OP_constu 16, DW_OP_minus, DW_OP_stack_value] $r11
	@DEBUG_VALUE: FMC_WriteMultiple:retval <- [DW_OP_plus_uconst 16, DW_OP_stack_value] $r9
	@DEBUG_VALUE: FMC_WriteMultiple:pu32Buf <- $r1
	@DEBUG_VALUE: FMC_WriteMultiple:u32Addr <- $r0
	cmp.w	r12, #8
	blo	.LBB16_33
.Ltmp331:
@ %bb.18:                               @   in Loop: Header=BB16_5 Depth=2
	@DEBUG_VALUE: FMC_WriteMultiple:i <- $r7
	@DEBUG_VALUE: FMC_WriteMultiple:idx <- $r10
	@DEBUG_VALUE: FMC_WriteMultiple:u32Len <- [DW_OP_constu 16, DW_OP_minus, DW_OP_stack_value] $r11
	@DEBUG_VALUE: FMC_WriteMultiple:retval <- [DW_OP_plus_uconst 16, DW_OP_stack_value] $r9
	@DEBUG_VALUE: FMC_WriteMultiple:pu32Buf <- $r1
	@DEBUG_VALUE: FMC_WriteMultiple:u32Addr <- $r0
	@DEBUG_VALUE: FMC_WriteMultiple:idx <- [DW_OP_plus_uconst 1, DW_OP_stack_value] $r10
	.loc	2 667 27 is_stmt 1              @ Library/StdDriver/src/fmc.c:667:27
	ldr.w	r5, [r1, r10, lsl #2]
	str	r4, [sp, #4]                    @ 4-byte Spill
	add.w	r6, r1, r10, lsl #2
	.loc	2 667 25 is_stmt 0              @ Library/StdDriver/src/fmc.c:667:25
	str	r5, [r3, #-64]
	.loc	2 668 27 is_stmt 1              @ Library/StdDriver/src/fmc.c:668:27
	ldr	r5, [r6, #4]
	.loc	2 672 20                        @ Library/StdDriver/src/fmc.c:672:20
	movw	r6, :lower16:SystemCoreClock
	.loc	2 668 25                        @ Library/StdDriver/src/fmc.c:668:25
	str	r5, [r3, #-60]
.Ltmp332:
	@DEBUG_VALUE: FMC_WriteMultiple:retval <- [DW_OP_plus_uconst 24, DW_OP_stack_value] $r9
	.loc	2 672 20                        @ Library/StdDriver/src/fmc.c:672:20
	movt	r6, :upper16:SystemCoreClock
	ldr	r5, [r6]
	movw	r6, #52429
	movt	r6, #52428
	umull	r5, lr, r5, r6
	mvn	r4, #1
	.loc	2 668 38                        @ Library/StdDriver/src/fmc.c:668:38
	add.w	r6, r8, #6
.Ltmp333:
	@DEBUG_VALUE: FMC_WriteMultiple:idx <- $r6
	.loc	2 670 20                        @ Library/StdDriver/src/fmc.c:670:20
	sub.w	r11, r11, #24
.Ltmp334:
	@DEBUG_VALUE: FMC_WriteMultiple:u32Len <- $r11
	.loc	2 672 20                        @ Library/StdDriver/src/fmc.c:672:20
	and.w	r5, r4, lr, lsr #2
.Ltmp335:
	@DEBUG_VALUE: FMC_WriteMultiple:tout <- $r5
	.p2align	2
.LBB16_19:                              @   Parent Loop BB16_4 Depth=1
                                        @     Parent Loop BB16_5 Depth=2
                                        @ =>    This Inner Loop Header: Depth=3
	@DEBUG_VALUE: FMC_WriteMultiple:retval <- [DW_OP_plus_uconst 24, DW_OP_stack_value] $r9
	@DEBUG_VALUE: FMC_WriteMultiple:tout <- $r5
	@DEBUG_VALUE: FMC_WriteMultiple:i <- $r7
	@DEBUG_VALUE: FMC_WriteMultiple:idx <- $r6
	@DEBUG_VALUE: FMC_WriteMultiple:u32Len <- $r11
	@DEBUG_VALUE: FMC_WriteMultiple:pu32Buf <- $r1
	@DEBUG_VALUE: FMC_WriteMultiple:u32Addr <- $r0
	@DEBUG_VALUE: FMC_WriteMultiple:tout <- [DW_OP_constu 1, DW_OP_minus, DW_OP_stack_value] $r5
	.loc	2 673 33                        @ Library/StdDriver/src/fmc.c:673:33
	cmp	r5, #0
	beq	.LBB16_48
.Ltmp336:
@ %bb.20:                               @   in Loop: Header=BB16_19 Depth=3
	@DEBUG_VALUE: FMC_WriteMultiple:retval <- [DW_OP_plus_uconst 24, DW_OP_stack_value] $r9
	@DEBUG_VALUE: FMC_WriteMultiple:tout <- [DW_OP_constu 1, DW_OP_minus, DW_OP_stack_value] $r5
	@DEBUG_VALUE: FMC_WriteMultiple:i <- $r7
	@DEBUG_VALUE: FMC_WriteMultiple:idx <- $r6
	@DEBUG_VALUE: FMC_WriteMultiple:u32Len <- $r11
	@DEBUG_VALUE: FMC_WriteMultiple:pu32Buf <- $r1
	@DEBUG_VALUE: FMC_WriteMultiple:u32Addr <- $r0
	@DEBUG_VALUE: FMC_WriteMultiple:tout <- [DW_OP_constu 1, DW_OP_minus, DW_OP_stack_value] $r5
	.loc	2 673 42 is_stmt 0              @ Library/StdDriver/src/fmc.c:673:42
	ldr	r4, [r3]
	.loc	2 673 13                        @ Library/StdDriver/src/fmc.c:673:13
	tst.w	r4, #192
	beq	.LBB16_28
.Ltmp337:
@ %bb.21:                               @   in Loop: Header=BB16_19 Depth=3
	@DEBUG_VALUE: FMC_WriteMultiple:retval <- [DW_OP_plus_uconst 24, DW_OP_stack_value] $r9
	@DEBUG_VALUE: FMC_WriteMultiple:tout <- [DW_OP_constu 1, DW_OP_minus, DW_OP_stack_value] $r5
	@DEBUG_VALUE: FMC_WriteMultiple:i <- $r7
	@DEBUG_VALUE: FMC_WriteMultiple:idx <- $r6
	@DEBUG_VALUE: FMC_WriteMultiple:u32Len <- $r11
	@DEBUG_VALUE: FMC_WriteMultiple:pu32Buf <- $r1
	@DEBUG_VALUE: FMC_WriteMultiple:u32Addr <- $r0
	@DEBUG_VALUE: FMC_WriteMultiple:tout <- [DW_OP_constu 2, DW_OP_minus, DW_OP_stack_value] $r5
	.loc	2 673 42                        @ Library/StdDriver/src/fmc.c:673:42
	ldr	r4, [r3]
	.loc	2 673 13                        @ Library/StdDriver/src/fmc.c:673:13
	tst.w	r4, #192
	beq	.LBB16_26
.Ltmp338:
@ %bb.22:                               @   in Loop: Header=BB16_19 Depth=3
	@DEBUG_VALUE: FMC_WriteMultiple:retval <- [DW_OP_plus_uconst 24, DW_OP_stack_value] $r9
	@DEBUG_VALUE: FMC_WriteMultiple:tout <- [DW_OP_constu 2, DW_OP_minus, DW_OP_stack_value] $r5
	@DEBUG_VALUE: FMC_WriteMultiple:i <- $r7
	@DEBUG_VALUE: FMC_WriteMultiple:idx <- $r6
	@DEBUG_VALUE: FMC_WriteMultiple:u32Len <- $r11
	@DEBUG_VALUE: FMC_WriteMultiple:pu32Buf <- $r1
	@DEBUG_VALUE: FMC_WriteMultiple:u32Addr <- $r0
	@DEBUG_VALUE: FMC_WriteMultiple:tout <- [DW_OP_constu 2, DW_OP_minus, DW_OP_constu 1, DW_OP_minus, DW_OP_stack_value] $r5
	.loc	2 673 33                        @ Library/StdDriver/src/fmc.c:673:33
	cmp	r5, #2
	beq	.LBB16_48
.Ltmp339:
@ %bb.23:                               @   in Loop: Header=BB16_19 Depth=3
	@DEBUG_VALUE: FMC_WriteMultiple:retval <- [DW_OP_plus_uconst 24, DW_OP_stack_value] $r9
	@DEBUG_VALUE: FMC_WriteMultiple:tout <- [DW_OP_constu 2, DW_OP_minus, DW_OP_constu 1, DW_OP_minus, DW_OP_stack_value] $r5
	@DEBUG_VALUE: FMC_WriteMultiple:i <- $r7
	@DEBUG_VALUE: FMC_WriteMultiple:idx <- $r6
	@DEBUG_VALUE: FMC_WriteMultiple:u32Len <- $r11
	@DEBUG_VALUE: FMC_WriteMultiple:pu32Buf <- $r1
	@DEBUG_VALUE: FMC_WriteMultiple:u32Addr <- $r0
	@DEBUG_VALUE: FMC_WriteMultiple:tout <- [DW_OP_constu 3, DW_OP_minus, DW_OP_stack_value] $r5
	.loc	2 673 42                        @ Library/StdDriver/src/fmc.c:673:42
	ldr	r4, [r3]
	.loc	2 673 13                        @ Library/StdDriver/src/fmc.c:673:13
	tst.w	r4, #192
	beq	.LBB16_27
.Ltmp340:
@ %bb.24:                               @   in Loop: Header=BB16_19 Depth=3
	@DEBUG_VALUE: FMC_WriteMultiple:retval <- [DW_OP_plus_uconst 24, DW_OP_stack_value] $r9
	@DEBUG_VALUE: FMC_WriteMultiple:tout <- [DW_OP_constu 3, DW_OP_minus, DW_OP_stack_value] $r5
	@DEBUG_VALUE: FMC_WriteMultiple:i <- $r7
	@DEBUG_VALUE: FMC_WriteMultiple:idx <- $r6
	@DEBUG_VALUE: FMC_WriteMultiple:u32Len <- $r11
	@DEBUG_VALUE: FMC_WriteMultiple:pu32Buf <- $r1
	@DEBUG_VALUE: FMC_WriteMultiple:u32Addr <- $r0
	@DEBUG_VALUE: FMC_WriteMultiple:tout <- [DW_OP_constu 3, DW_OP_minus, DW_OP_constu 1, DW_OP_minus, DW_OP_stack_value] $r5
	.loc	2 673 42                        @ Library/StdDriver/src/fmc.c:673:42
	ldr	r4, [r3]
	.loc	2 673 25                        @ Library/StdDriver/src/fmc.c:673:25
	subs	r5, #4
.Ltmp341:
	@DEBUG_VALUE: FMC_WriteMultiple:tout <- $r5
	.loc	2 673 13                        @ Library/StdDriver/src/fmc.c:673:13
	tst.w	r4, #192
	bne	.LBB16_19
.Ltmp342:
@ %bb.25:                               @   in Loop: Header=BB16_5 Depth=2
	@DEBUG_VALUE: FMC_WriteMultiple:retval <- [DW_OP_plus_uconst 24, DW_OP_stack_value] $r9
	@DEBUG_VALUE: FMC_WriteMultiple:tout <- $r5
	@DEBUG_VALUE: FMC_WriteMultiple:i <- $r7
	@DEBUG_VALUE: FMC_WriteMultiple:idx <- $r6
	@DEBUG_VALUE: FMC_WriteMultiple:u32Len <- $r11
	@DEBUG_VALUE: FMC_WriteMultiple:pu32Buf <- $r1
	@DEBUG_VALUE: FMC_WriteMultiple:u32Addr <- $r0
	.loc	2 674 22 is_stmt 1              @ Library/StdDriver/src/fmc.c:674:22
	adds	r5, #1
.Ltmp343:
	.loc	2 0 22 is_stmt 0                @ Library/StdDriver/src/fmc.c:0:22
	b	.LBB16_28
.Ltmp344:
.LBB16_26:                              @   in Loop: Header=BB16_5 Depth=2
	@DEBUG_VALUE: FMC_WriteMultiple:retval <- [DW_OP_plus_uconst 24, DW_OP_stack_value] $r9
	@DEBUG_VALUE: FMC_WriteMultiple:tout <- [DW_OP_constu 2, DW_OP_minus, DW_OP_stack_value] $r5
	@DEBUG_VALUE: FMC_WriteMultiple:i <- $r7
	@DEBUG_VALUE: FMC_WriteMultiple:idx <- $r6
	@DEBUG_VALUE: FMC_WriteMultiple:u32Len <- $r11
	@DEBUG_VALUE: FMC_WriteMultiple:pu32Buf <- $r1
	@DEBUG_VALUE: FMC_WriteMultiple:u32Addr <- $r0
	.loc	2 674 22                        @ Library/StdDriver/src/fmc.c:674:22
	subs	r5, #1
.Ltmp345:
	.loc	2 0 22                          @ Library/StdDriver/src/fmc.c:0:22
	b	.LBB16_28
.Ltmp346:
.LBB16_27:                              @   in Loop: Header=BB16_5 Depth=2
	@DEBUG_VALUE: FMC_WriteMultiple:retval <- [DW_OP_plus_uconst 24, DW_OP_stack_value] $r9
	@DEBUG_VALUE: FMC_WriteMultiple:tout <- [DW_OP_constu 3, DW_OP_minus, DW_OP_stack_value] $r5
	@DEBUG_VALUE: FMC_WriteMultiple:i <- $r7
	@DEBUG_VALUE: FMC_WriteMultiple:idx <- $r6
	@DEBUG_VALUE: FMC_WriteMultiple:u32Len <- $r11
	@DEBUG_VALUE: FMC_WriteMultiple:pu32Buf <- $r1
	@DEBUG_VALUE: FMC_WriteMultiple:u32Addr <- $r0
	.loc	2 674 22                        @ Library/StdDriver/src/fmc.c:674:22
	subs	r5, #2
.Ltmp347:
.LBB16_28:                              @   in Loop: Header=BB16_5 Depth=2
	@DEBUG_VALUE: FMC_WriteMultiple:retval <- [DW_OP_plus_uconst 24, DW_OP_stack_value] $r9
	@DEBUG_VALUE: FMC_WriteMultiple:i <- $r7
	@DEBUG_VALUE: FMC_WriteMultiple:idx <- $r6
	@DEBUG_VALUE: FMC_WriteMultiple:u32Len <- $r11
	@DEBUG_VALUE: FMC_WriteMultiple:pu32Buf <- $r1
	@DEBUG_VALUE: FMC_WriteMultiple:u32Addr <- $r0
	.loc	2 674 17                        @ Library/StdDriver/src/fmc.c:674:17
	cmp	r5, #1
	beq	.LBB16_48
.Ltmp348:
@ %bb.29:                               @   in Loop: Header=BB16_5 Depth=2
	@DEBUG_VALUE: FMC_WriteMultiple:retval <- [DW_OP_plus_uconst 24, DW_OP_stack_value] $r9
	@DEBUG_VALUE: FMC_WriteMultiple:i <- $r7
	@DEBUG_VALUE: FMC_WriteMultiple:idx <- $r6
	@DEBUG_VALUE: FMC_WriteMultiple:u32Len <- $r11
	@DEBUG_VALUE: FMC_WriteMultiple:pu32Buf <- $r1
	@DEBUG_VALUE: FMC_WriteMultiple:u32Addr <- $r0
	.loc	2 679 24 is_stmt 1              @ Library/StdDriver/src/fmc.c:679:24
	ldr	r5, [r3]
.Ltmp349:
	.loc	2 679 17 is_stmt 0              @ Library/StdDriver/src/fmc.c:679:17
	lsls	r5, r5, #31
	beq	.LBB16_51
.Ltmp350:
@ %bb.30:                               @   in Loop: Header=BB16_5 Depth=2
	@DEBUG_VALUE: FMC_WriteMultiple:retval <- [DW_OP_plus_uconst 24, DW_OP_stack_value] $r9
	@DEBUG_VALUE: FMC_WriteMultiple:i <- $r7
	@DEBUG_VALUE: FMC_WriteMultiple:idx <- $r6
	@DEBUG_VALUE: FMC_WriteMultiple:u32Len <- $r11
	@DEBUG_VALUE: FMC_WriteMultiple:pu32Buf <- $r1
	@DEBUG_VALUE: FMC_WriteMultiple:u32Addr <- $r0
	.loc	2 686 17 is_stmt 1              @ Library/StdDriver/src/fmc.c:686:17
	cmp.w	r11, #8
	blo	.LBB16_34
.Ltmp351:
@ %bb.31:                               @   in Loop: Header=BB16_5 Depth=2
	@DEBUG_VALUE: FMC_WriteMultiple:retval <- [DW_OP_plus_uconst 24, DW_OP_stack_value] $r9
	@DEBUG_VALUE: FMC_WriteMultiple:i <- $r7
	@DEBUG_VALUE: FMC_WriteMultiple:idx <- $r6
	@DEBUG_VALUE: FMC_WriteMultiple:u32Len <- $r11
	@DEBUG_VALUE: FMC_WriteMultiple:pu32Buf <- $r1
	@DEBUG_VALUE: FMC_WriteMultiple:u32Addr <- $r0
	@DEBUG_VALUE: FMC_WriteMultiple:idx <- [DW_OP_plus_uconst 7, DW_OP_stack_value] $r8
	.loc	2 689 27                        @ Library/StdDriver/src/fmc.c:689:27
	ldr.w	r6, [r1, r6, lsl #2]
.Ltmp352:
	.loc	2 649 9                         @ Library/StdDriver/src/fmc.c:649:9
	cmp.w	r7, #496
.Ltmp353:
	.loc	2 689 25                        @ Library/StdDriver/src/fmc.c:689:25
	str	r6, [r3, #-56]
.Ltmp354:
	@DEBUG_VALUE: FMC_WriteMultiple:idx <- [DW_OP_plus_uconst 4, DW_OP_stack_value] $r10
	.loc	2 690 27                        @ Library/StdDriver/src/fmc.c:690:27
	ldr	r6, [sp, #8]                    @ 4-byte Reload
.Ltmp355:
	.loc	2 649 53                        @ Library/StdDriver/src/fmc.c:649:53
	add.w	r7, r7, #16
.Ltmp356:
	@DEBUG_VALUE: FMC_WriteMultiple:i <- $r7
	.loc	2 690 27                        @ Library/StdDriver/src/fmc.c:690:27
	ldr.w	r6, [r6, r8, lsl #2]
	mov	r8, r10
	.loc	2 690 25 is_stmt 0              @ Library/StdDriver/src/fmc.c:690:25
	str	r6, [r3, #-52]
.Ltmp357:
	@DEBUG_VALUE: FMC_WriteMultiple:retval <- [DW_OP_plus_uconst 4, DW_OP_deref_size 4, DW_OP_plus_uconst 16, DW_OP_stack_value] $sp
	@DEBUG_VALUE: FMC_WriteMultiple:u32Len <- [DW_OP_constu 16, DW_OP_minus, DW_OP_stack_value] $r12
	.loc	2 0 25                          @ Library/StdDriver/src/fmc.c:0:25
	ldr.w	r9, [sp, #4]                    @ 4-byte Reload
.Ltmp358:
	@DEBUG_VALUE: FMC_WriteMultiple:retval <- [DW_OP_plus_uconst 16, DW_OP_stack_value] $r9
	add.w	r6, r10, #4
.Ltmp359:
	@DEBUG_VALUE: FMC_WriteMultiple:idx <- $r6
	mov	r11, r12
.Ltmp360:
	@DEBUG_VALUE: FMC_WriteMultiple:u32Len <- [DW_OP_constu 16, DW_OP_minus, DW_OP_stack_value] $r11
	@DEBUG_VALUE: FMC_WriteMultiple:u32Len <- [DW_OP_constu 16, DW_OP_minus, DW_OP_stack_value] $r11
	.loc	2 649 9 is_stmt 1               @ Library/StdDriver/src/fmc.c:649:9
	blo.w	.LBB16_5
.Ltmp361:
@ %bb.32:                               @   in Loop: Header=BB16_4 Depth=1
	@DEBUG_VALUE: FMC_WriteMultiple:i <- $r7
	@DEBUG_VALUE: FMC_WriteMultiple:idx <- $r6
	@DEBUG_VALUE: FMC_WriteMultiple:u32Len <- [DW_OP_constu 16, DW_OP_minus, DW_OP_stack_value] $r11
	@DEBUG_VALUE: FMC_WriteMultiple:retval <- [DW_OP_plus_uconst 16, DW_OP_stack_value] $r9
	@DEBUG_VALUE: FMC_WriteMultiple:pu32Buf <- $r1
	@DEBUG_VALUE: FMC_WriteMultiple:u32Addr <- $r0
	.loc	2 0 9 is_stmt 0                 @ Library/StdDriver/src/fmc.c:0:9
	ldr.w	r11, [sp]                       @ 4-byte Reload
.Ltmp362:
	mov.w	r12, #39
	mov.w	lr, #1
	b	.LBB16_36
.Ltmp363:
.LBB16_33:                              @   in Loop: Header=BB16_4 Depth=1
	@DEBUG_VALUE: FMC_WriteMultiple:i <- $r7
	@DEBUG_VALUE: FMC_WriteMultiple:idx <- $r10
	@DEBUG_VALUE: FMC_WriteMultiple:u32Len <- [DW_OP_constu 16, DW_OP_minus, DW_OP_stack_value] $r11
	@DEBUG_VALUE: FMC_WriteMultiple:retval <- [DW_OP_plus_uconst 16, DW_OP_stack_value] $r9
	@DEBUG_VALUE: FMC_WriteMultiple:pu32Buf <- $r1
	@DEBUG_VALUE: FMC_WriteMultiple:u32Addr <- $r0
	mov	r11, r12
.Ltmp364:
	mov	r6, r10
.Ltmp365:
	@DEBUG_VALUE: FMC_WriteMultiple:idx <- $r6
	b	.LBB16_35
.Ltmp366:
.LBB16_34:                              @   in Loop: Header=BB16_4 Depth=1
	@DEBUG_VALUE: FMC_WriteMultiple:retval <- [DW_OP_plus_uconst 24, DW_OP_stack_value] $r9
	@DEBUG_VALUE: FMC_WriteMultiple:i <- $r7
	@DEBUG_VALUE: FMC_WriteMultiple:idx <- $r6
	@DEBUG_VALUE: FMC_WriteMultiple:u32Len <- $r11
	@DEBUG_VALUE: FMC_WriteMultiple:pu32Buf <- $r1
	@DEBUG_VALUE: FMC_WriteMultiple:u32Addr <- $r0
	add.w	r4, r9, #24
.Ltmp367:
.LBB16_35:                              @   in Loop: Header=BB16_4 Depth=1
	@DEBUG_VALUE: FMC_WriteMultiple:i <- $r7
	@DEBUG_VALUE: FMC_WriteMultiple:idx <- $r6
	@DEBUG_VALUE: FMC_WriteMultiple:pu32Buf <- $r1
	@DEBUG_VALUE: FMC_WriteMultiple:u32Addr <- $r0
	@DEBUG_VALUE: FMC_WriteMultiple:u32Len <- $r11
	@DEBUG_VALUE: FMC_WriteMultiple:retval <- $r4
	@DEBUG_VALUE: FMC_WriteMultiple:idx <- $r6
	@DEBUG_VALUE: FMC_WriteMultiple:i <- $r7
	.loc	2 695 13 is_stmt 1              @ Library/StdDriver/src/fmc.c:695:13
	cmp.w	r7, #512
	mov	r2, r4
.Ltmp368:
	@DEBUG_VALUE: FMC_WriteMultiple:retval <- $r2
	.loc	2 0 13 is_stmt 0                @ Library/StdDriver/src/fmc.c:0:13
	mov.w	r12, #39
	mov.w	lr, #1
	.loc	2 695 13                        @ Library/StdDriver/src/fmc.c:695:13
	bne	.LBB16_50
.Ltmp369:
.LBB16_36:                              @   in Loop: Header=BB16_4 Depth=1
	@DEBUG_VALUE: FMC_WriteMultiple:i <- $r7
	@DEBUG_VALUE: FMC_WriteMultiple:idx <- $r6
	@DEBUG_VALUE: FMC_WriteMultiple:pu32Buf <- $r1
	@DEBUG_VALUE: FMC_WriteMultiple:u32Addr <- $r0
	.loc	2 701 16 is_stmt 1              @ Library/StdDriver/src/fmc.c:701:16
	movw	r4, :lower16:SystemCoreClock
	movt	r4, :upper16:SystemCoreClock
	ldr	r7, [r4]
.Ltmp370:
	movw	r4, #52429
	movt	r4, #52428
	umull	r7, r5, r7, r4
	mvn	r4, #1
	and.w	r4, r4, r5, lsr #2
.Ltmp371:
	@DEBUG_VALUE: FMC_WriteMultiple:tout <- $r4
.LBB16_37:                              @   Parent Loop BB16_4 Depth=1
                                        @ =>  This Inner Loop Header: Depth=2
	@DEBUG_VALUE: FMC_WriteMultiple:tout <- $r4
	@DEBUG_VALUE: FMC_WriteMultiple:idx <- $r6
	@DEBUG_VALUE: FMC_WriteMultiple:pu32Buf <- $r1
	@DEBUG_VALUE: FMC_WriteMultiple:u32Addr <- $r0
	@DEBUG_VALUE: FMC_WriteMultiple:tout <- [DW_OP_constu 1, DW_OP_minus, DW_OP_stack_value] $r4
	.loc	2 702 29                        @ Library/StdDriver/src/fmc.c:702:29
	cbz	r4, .LBB16_48
.Ltmp372:
@ %bb.38:                               @   in Loop: Header=BB16_37 Depth=2
	@DEBUG_VALUE: FMC_WriteMultiple:tout <- [DW_OP_constu 1, DW_OP_minus, DW_OP_stack_value] $r4
	@DEBUG_VALUE: FMC_WriteMultiple:idx <- $r6
	@DEBUG_VALUE: FMC_WriteMultiple:pu32Buf <- $r1
	@DEBUG_VALUE: FMC_WriteMultiple:u32Addr <- $r0
	@DEBUG_VALUE: FMC_WriteMultiple:tout <- [DW_OP_constu 1, DW_OP_minus, DW_OP_stack_value] $r4
	.loc	2 702 38 is_stmt 0              @ Library/StdDriver/src/fmc.c:702:38
	ldr	r7, [r3]
	.loc	2 702 9                         @ Library/StdDriver/src/fmc.c:702:9
	lsls	r7, r7, #31
	beq	.LBB16_46
.Ltmp373:
@ %bb.39:                               @   in Loop: Header=BB16_37 Depth=2
	@DEBUG_VALUE: FMC_WriteMultiple:tout <- [DW_OP_constu 1, DW_OP_minus, DW_OP_stack_value] $r4
	@DEBUG_VALUE: FMC_WriteMultiple:idx <- $r6
	@DEBUG_VALUE: FMC_WriteMultiple:pu32Buf <- $r1
	@DEBUG_VALUE: FMC_WriteMultiple:u32Addr <- $r0
	@DEBUG_VALUE: FMC_WriteMultiple:tout <- [DW_OP_constu 2, DW_OP_minus, DW_OP_stack_value] $r4
	.loc	2 702 38                        @ Library/StdDriver/src/fmc.c:702:38
	ldr	r7, [r3]
	.loc	2 702 9                         @ Library/StdDriver/src/fmc.c:702:9
	lsls	r7, r7, #31
	beq	.LBB16_44
.Ltmp374:
@ %bb.40:                               @   in Loop: Header=BB16_37 Depth=2
	@DEBUG_VALUE: FMC_WriteMultiple:tout <- [DW_OP_constu 2, DW_OP_minus, DW_OP_stack_value] $r4
	@DEBUG_VALUE: FMC_WriteMultiple:idx <- $r6
	@DEBUG_VALUE: FMC_WriteMultiple:pu32Buf <- $r1
	@DEBUG_VALUE: FMC_WriteMultiple:u32Addr <- $r0
	@DEBUG_VALUE: FMC_WriteMultiple:tout <- [DW_OP_constu 2, DW_OP_minus, DW_OP_constu 1, DW_OP_minus, DW_OP_stack_value] $r4
	.loc	2 702 29                        @ Library/StdDriver/src/fmc.c:702:29
	cmp	r4, #2
	beq	.LBB16_48
.Ltmp375:
@ %bb.41:                               @   in Loop: Header=BB16_37 Depth=2
	@DEBUG_VALUE: FMC_WriteMultiple:tout <- [DW_OP_constu 2, DW_OP_minus, DW_OP_constu 1, DW_OP_minus, DW_OP_stack_value] $r4
	@DEBUG_VALUE: FMC_WriteMultiple:idx <- $r6
	@DEBUG_VALUE: FMC_WriteMultiple:pu32Buf <- $r1
	@DEBUG_VALUE: FMC_WriteMultiple:u32Addr <- $r0
	@DEBUG_VALUE: FMC_WriteMultiple:tout <- [DW_OP_constu 3, DW_OP_minus, DW_OP_stack_value] $r4
	.loc	2 702 38                        @ Library/StdDriver/src/fmc.c:702:38
	ldr	r7, [r3]
	.loc	2 702 9                         @ Library/StdDriver/src/fmc.c:702:9
	lsls	r7, r7, #31
	beq	.LBB16_45
.Ltmp376:
@ %bb.42:                               @   in Loop: Header=BB16_37 Depth=2
	@DEBUG_VALUE: FMC_WriteMultiple:tout <- [DW_OP_constu 3, DW_OP_minus, DW_OP_stack_value] $r4
	@DEBUG_VALUE: FMC_WriteMultiple:idx <- $r6
	@DEBUG_VALUE: FMC_WriteMultiple:pu32Buf <- $r1
	@DEBUG_VALUE: FMC_WriteMultiple:u32Addr <- $r0
	@DEBUG_VALUE: FMC_WriteMultiple:tout <- [DW_OP_constu 3, DW_OP_minus, DW_OP_constu 1, DW_OP_minus, DW_OP_stack_value] $r4
	.loc	2 702 38                        @ Library/StdDriver/src/fmc.c:702:38
	ldr	r7, [r3]
	.loc	2 702 21                        @ Library/StdDriver/src/fmc.c:702:21
	subs	r4, #4
.Ltmp377:
	@DEBUG_VALUE: FMC_WriteMultiple:tout <- $r4
	.loc	2 702 9                         @ Library/StdDriver/src/fmc.c:702:9
	lsls	r7, r7, #31
	bne	.LBB16_37
.Ltmp378:
@ %bb.43:                               @   in Loop: Header=BB16_4 Depth=1
	@DEBUG_VALUE: FMC_WriteMultiple:tout <- $r4
	@DEBUG_VALUE: FMC_WriteMultiple:idx <- $r6
	@DEBUG_VALUE: FMC_WriteMultiple:pu32Buf <- $r1
	@DEBUG_VALUE: FMC_WriteMultiple:u32Addr <- $r0
	.loc	2 703 18 is_stmt 1              @ Library/StdDriver/src/fmc.c:703:18
	adds	r4, #1
.Ltmp379:
	.loc	2 0 18 is_stmt 0                @ Library/StdDriver/src/fmc.c:0:18
	b	.LBB16_46
.Ltmp380:
.LBB16_44:                              @   in Loop: Header=BB16_4 Depth=1
	@DEBUG_VALUE: FMC_WriteMultiple:tout <- [DW_OP_constu 2, DW_OP_minus, DW_OP_stack_value] $r4
	@DEBUG_VALUE: FMC_WriteMultiple:idx <- $r6
	@DEBUG_VALUE: FMC_WriteMultiple:pu32Buf <- $r1
	@DEBUG_VALUE: FMC_WriteMultiple:u32Addr <- $r0
	.loc	2 703 18                        @ Library/StdDriver/src/fmc.c:703:18
	subs	r4, #1
.Ltmp381:
	.loc	2 0 18                          @ Library/StdDriver/src/fmc.c:0:18
	b	.LBB16_46
.Ltmp382:
.LBB16_45:                              @   in Loop: Header=BB16_4 Depth=1
	@DEBUG_VALUE: FMC_WriteMultiple:tout <- [DW_OP_constu 3, DW_OP_minus, DW_OP_stack_value] $r4
	@DEBUG_VALUE: FMC_WriteMultiple:idx <- $r6
	@DEBUG_VALUE: FMC_WriteMultiple:pu32Buf <- $r1
	@DEBUG_VALUE: FMC_WriteMultiple:u32Addr <- $r0
	.loc	2 703 18                        @ Library/StdDriver/src/fmc.c:703:18
	subs	r4, #2
.Ltmp383:
.LBB16_46:                              @   in Loop: Header=BB16_4 Depth=1
	@DEBUG_VALUE: FMC_WriteMultiple:idx <- $r6
	@DEBUG_VALUE: FMC_WriteMultiple:pu32Buf <- $r1
	@DEBUG_VALUE: FMC_WriteMultiple:u32Addr <- $r0
	@DEBUG_VALUE: FMC_WriteMultiple:u32Addr <- [DW_OP_plus_uconst 512, DW_OP_stack_value] $r0
	.loc	2 703 13                        @ Library/StdDriver/src/fmc.c:703:13
	cmp	r4, #1
	beq	.LBB16_48
.Ltmp384:
@ %bb.47:                               @   in Loop: Header=BB16_4 Depth=1
	@DEBUG_VALUE: FMC_WriteMultiple:u32Addr <- [DW_OP_plus_uconst 512, DW_OP_stack_value] $r0
	@DEBUG_VALUE: FMC_WriteMultiple:idx <- $r6
	@DEBUG_VALUE: FMC_WriteMultiple:pu32Buf <- $r1
	.loc	2 637 5 is_stmt 1               @ Library/StdDriver/src/fmc.c:637:5
	cmp.w	r11, #8
.Ltmp385:
	.loc	2 709 17                        @ Library/StdDriver/src/fmc.c:709:17
	add.w	r0, r0, #512
.Ltmp386:
	@DEBUG_VALUE: FMC_WriteMultiple:idx <- $r6
	@DEBUG_VALUE: FMC_WriteMultiple:retval <- $r2
	@DEBUG_VALUE: FMC_WriteMultiple:u32Len <- $r11
	@DEBUG_VALUE: FMC_WriteMultiple:u32Addr <- $r0
	.loc	2 0 17 is_stmt 0                @ Library/StdDriver/src/fmc.c:0:17
	bhs.w	.LBB16_4
	b	.LBB16_50
.Ltmp387:
.LBB16_48:
	@DEBUG_VALUE: FMC_WriteMultiple:pu32Buf <- $r1
	movw	r0, :lower16:g_FMC_i32ErrCode
	mov.w	r2, #-1
	movt	r0, :upper16:g_FMC_i32ErrCode
	str	r2, [r0]
	b	.LBB16_50
.Ltmp388:
.LBB16_49:
	@DEBUG_VALUE: FMC_WriteMultiple:u32Len <- $r11
	@DEBUG_VALUE: FMC_WriteMultiple:idx <- 0
	@DEBUG_VALUE: FMC_WriteMultiple:retval <- 0
	@DEBUG_VALUE: FMC_WriteMultiple:pu32Buf <- $r1
	movs	r2, #0
.Ltmp389:
.LBB16_50:
	@DEBUG_VALUE: FMC_WriteMultiple:pu32Buf <- $r1
	.loc	2 712 1 is_stmt 1               @ Library/StdDriver/src/fmc.c:712:1
	mov	r0, r2
	.loc	2 712 1 epilogue_begin is_stmt 0 @ Library/StdDriver/src/fmc.c:712:1
	add	sp, #12
	pop.w	{r4, r5, r6, r7, r8, r9, r10, r11, pc}
.Ltmp390:
.LBB16_51:
	@DEBUG_VALUE: FMC_WriteMultiple:retval <- [DW_OP_plus_uconst 24, DW_OP_stack_value] $r9
	@DEBUG_VALUE: FMC_WriteMultiple:i <- $r7
	@DEBUG_VALUE: FMC_WriteMultiple:idx <- $r6
	@DEBUG_VALUE: FMC_WriteMultiple:u32Len <- $r11
	@DEBUG_VALUE: FMC_WriteMultiple:pu32Buf <- $r1
	@DEBUG_VALUE: FMC_WriteMultiple:u32Addr <- $r0
	.loc	2 0 1                           @ Library/StdDriver/src/fmc.c:0:1
	add.w	r2, r9, #24
	b	.LBB16_50
.Lfunc_end16:
	.size	FMC_WriteMultiple, .Lfunc_end16-FMC_WriteMultiple
	.cfi_endproc
	.cantunwind
	.fnend
                                        @ -- End function
	.section	.text.FMC_Write_OTP,"ax",%progbits
	.hidden	FMC_Write_OTP                   @ -- Begin function FMC_Write_OTP
	.globl	FMC_Write_OTP
	.p2align	2
	.type	FMC_Write_OTP,%function
	.code	16                              @ @FMC_Write_OTP
	.thumb_func
FMC_Write_OTP:
.Lfunc_begin17:
	.loc	2 729 0 is_stmt 1               @ Library/StdDriver/src/fmc.c:729:0
	.fnstart
	.cfi_startproc
@ %bb.0:
	@DEBUG_VALUE: FMC_Write_OTP:otp_num <- $r0
	@DEBUG_VALUE: FMC_Write_OTP:low_word <- $r1
	@DEBUG_VALUE: FMC_Write_OTP:high_word <- $r2
	.save	{r4, r5, r6, lr}
	push	{r4, r5, r6, lr}
	.cfi_def_cfa_offset 16
	.cfi_offset lr, -4
	.cfi_offset r6, -8
	.cfi_offset r5, -12
	.cfi_offset r4, -16
.Ltmp391:
	.loc	2 732 22 prologue_end           @ Library/StdDriver/src/fmc.c:732:22
	movw	r12, :lower16:g_FMC_i32ErrCode
	mov	r3, r0
.Ltmp392:
	@DEBUG_VALUE: FMC_Write_OTP:otp_num <- $r3
	movt	r12, :upper16:g_FMC_i32ErrCode
	movs	r0, #0
	str.w	r0, [r12]
	.loc	2 734 9                         @ Library/StdDriver/src/fmc.c:734:9
	cmp	r3, #255
	mvn	r0, #1
	bhi.w	.LBB17_27
.Ltmp393:
@ %bb.1:
	@DEBUG_VALUE: FMC_Write_OTP:otp_num <- $r3
	@DEBUG_VALUE: FMC_Write_OTP:high_word <- $r2
	@DEBUG_VALUE: FMC_Write_OTP:low_word <- $r1
	.loc	2 0 9 is_stmt 0                 @ Library/StdDriver/src/fmc.c:0:9
	movw	lr, #49344
	movt	lr, #16384
	movs	r4, #33
	.loc	2 740 17 is_stmt 1              @ Library/StdDriver/src/fmc.c:740:17
	str	r4, [lr, #-180]
	mov.w	r4, #3211264
	.loc	2 741 33                        @ Library/StdDriver/src/fmc.c:741:33
	orr.w	r4, r4, r3, lsl #3
	.loc	2 741 18 is_stmt 0              @ Library/StdDriver/src/fmc.c:741:18
	str	r4, [lr, #-188]
	.loc	2 742 17 is_stmt 1              @ Library/StdDriver/src/fmc.c:742:17
	str	r1, [lr, #-184]
	movs	r1, #1
.Ltmp394:
	@DEBUG_VALUE: FMC_Write_OTP:low_word <- [DW_OP_LLVM_entry_value 1] $r1
	.loc	2 743 17                        @ Library/StdDriver/src/fmc.c:743:17
	str	r1, [lr, #-176]
	.loc	2 745 12                        @ Library/StdDriver/src/fmc.c:745:12
	movw	r1, :lower16:SystemCoreClock
	movt	r1, :upper16:SystemCoreClock
	ldr	r5, [r1]
	movw	r4, #52429
	movt	r4, #52428
	umull	r5, r6, r5, r4
	.loc	2 741 43                        @ Library/StdDriver/src/fmc.c:741:43
	lsls	r3, r3, #3
.Ltmp395:
	.loc	2 745 12                        @ Library/StdDriver/src/fmc.c:745:12
	and.w	r0, r0, r6, lsr #2
.Ltmp396:
	@DEBUG_VALUE: FMC_Write_OTP:tout <- $r0
	.p2align	2
.LBB17_2:                               @ =>This Inner Loop Header: Depth=1
	@DEBUG_VALUE: FMC_Write_OTP:tout <- $r0
	@DEBUG_VALUE: FMC_Write_OTP:low_word <- [DW_OP_LLVM_entry_value 1] $r1
	@DEBUG_VALUE: FMC_Write_OTP:high_word <- $r2
	@DEBUG_VALUE: FMC_Write_OTP:tout <- [DW_OP_constu 1, DW_OP_minus, DW_OP_stack_value] $r0
	.loc	2 746 25                        @ Library/StdDriver/src/fmc.c:746:25
	cmp	r0, #0
	beq	.LBB17_26
.Ltmp397:
@ %bb.3:                                @   in Loop: Header=BB17_2 Depth=1
	@DEBUG_VALUE: FMC_Write_OTP:tout <- [DW_OP_constu 1, DW_OP_minus, DW_OP_stack_value] $r0
	@DEBUG_VALUE: FMC_Write_OTP:low_word <- [DW_OP_LLVM_entry_value 1] $r1
	@DEBUG_VALUE: FMC_Write_OTP:high_word <- $r2
	@DEBUG_VALUE: FMC_Write_OTP:tout <- [DW_OP_constu 1, DW_OP_minus, DW_OP_stack_value] $r0
	.loc	2 746 34 is_stmt 0              @ Library/StdDriver/src/fmc.c:746:34
	ldr.w	r5, [lr]
	.loc	2 746 5                         @ Library/StdDriver/src/fmc.c:746:5
	lsls	r5, r5, #31
	beq	.LBB17_10
.Ltmp398:
@ %bb.4:                                @   in Loop: Header=BB17_2 Depth=1
	@DEBUG_VALUE: FMC_Write_OTP:tout <- [DW_OP_constu 1, DW_OP_minus, DW_OP_stack_value] $r0
	@DEBUG_VALUE: FMC_Write_OTP:low_word <- [DW_OP_LLVM_entry_value 1] $r1
	@DEBUG_VALUE: FMC_Write_OTP:high_word <- $r2
	@DEBUG_VALUE: FMC_Write_OTP:tout <- [DW_OP_constu 2, DW_OP_minus, DW_OP_stack_value] $r0
	.loc	2 746 34                        @ Library/StdDriver/src/fmc.c:746:34
	ldr.w	r5, [lr]
	.loc	2 746 5                         @ Library/StdDriver/src/fmc.c:746:5
	lsls	r5, r5, #31
	beq	.LBB17_9
.Ltmp399:
@ %bb.5:                                @   in Loop: Header=BB17_2 Depth=1
	@DEBUG_VALUE: FMC_Write_OTP:tout <- [DW_OP_constu 2, DW_OP_minus, DW_OP_stack_value] $r0
	@DEBUG_VALUE: FMC_Write_OTP:low_word <- [DW_OP_LLVM_entry_value 1] $r1
	@DEBUG_VALUE: FMC_Write_OTP:high_word <- $r2
	@DEBUG_VALUE: FMC_Write_OTP:tout <- [DW_OP_constu 2, DW_OP_minus, DW_OP_constu 1, DW_OP_minus, DW_OP_stack_value] $r0
	.loc	2 746 25                        @ Library/StdDriver/src/fmc.c:746:25
	cmp	r0, #2
	beq	.LBB17_26
.Ltmp400:
@ %bb.6:                                @   in Loop: Header=BB17_2 Depth=1
	@DEBUG_VALUE: FMC_Write_OTP:tout <- [DW_OP_constu 2, DW_OP_minus, DW_OP_constu 1, DW_OP_minus, DW_OP_stack_value] $r0
	@DEBUG_VALUE: FMC_Write_OTP:low_word <- [DW_OP_LLVM_entry_value 1] $r1
	@DEBUG_VALUE: FMC_Write_OTP:high_word <- $r2
	@DEBUG_VALUE: FMC_Write_OTP:tout <- [DW_OP_constu 3, DW_OP_minus, DW_OP_stack_value] $r0
	.loc	2 746 34                        @ Library/StdDriver/src/fmc.c:746:34
	ldr.w	r5, [lr]
	.loc	2 746 5                         @ Library/StdDriver/src/fmc.c:746:5
	lsls	r5, r5, #31
	beq	.LBB17_20
.Ltmp401:
@ %bb.7:                                @   in Loop: Header=BB17_2 Depth=1
	@DEBUG_VALUE: FMC_Write_OTP:tout <- [DW_OP_constu 3, DW_OP_minus, DW_OP_stack_value] $r0
	@DEBUG_VALUE: FMC_Write_OTP:low_word <- [DW_OP_LLVM_entry_value 1] $r1
	@DEBUG_VALUE: FMC_Write_OTP:high_word <- $r2
	@DEBUG_VALUE: FMC_Write_OTP:tout <- [DW_OP_constu 3, DW_OP_minus, DW_OP_constu 1, DW_OP_minus, DW_OP_stack_value] $r0
	.loc	2 746 34                        @ Library/StdDriver/src/fmc.c:746:34
	ldr.w	r5, [lr]
	.loc	2 746 17                        @ Library/StdDriver/src/fmc.c:746:17
	subs	r0, #4
.Ltmp402:
	@DEBUG_VALUE: FMC_Write_OTP:tout <- $r0
	.loc	2 746 5                         @ Library/StdDriver/src/fmc.c:746:5
	lsls	r5, r5, #31
	bne	.LBB17_2
.Ltmp403:
@ %bb.8:
	@DEBUG_VALUE: FMC_Write_OTP:tout <- $r0
	@DEBUG_VALUE: FMC_Write_OTP:low_word <- [DW_OP_LLVM_entry_value 1] $r1
	@DEBUG_VALUE: FMC_Write_OTP:high_word <- $r2
	.loc	2 747 14 is_stmt 1              @ Library/StdDriver/src/fmc.c:747:14
	adds	r0, #1
.Ltmp404:
	.loc	2 747 9 is_stmt 0               @ Library/StdDriver/src/fmc.c:747:9
	cmp	r0, #1
	bne	.LBB17_11
	b	.LBB17_26
.Ltmp405:
.LBB17_9:
	@DEBUG_VALUE: FMC_Write_OTP:tout <- [DW_OP_constu 2, DW_OP_minus, DW_OP_stack_value] $r0
	@DEBUG_VALUE: FMC_Write_OTP:low_word <- [DW_OP_LLVM_entry_value 1] $r1
	@DEBUG_VALUE: FMC_Write_OTP:high_word <- $r2
	.loc	2 747 14                        @ Library/StdDriver/src/fmc.c:747:14
	subs	r0, #1
.Ltmp406:
.LBB17_10:
	@DEBUG_VALUE: FMC_Write_OTP:low_word <- [DW_OP_LLVM_entry_value 1] $r1
	@DEBUG_VALUE: FMC_Write_OTP:high_word <- $r2
	.loc	2 747 9                         @ Library/StdDriver/src/fmc.c:747:9
	cmp	r0, #1
	beq	.LBB17_26
.Ltmp407:
.LBB17_11:
	@DEBUG_VALUE: FMC_Write_OTP:low_word <- [DW_OP_LLVM_entry_value 1] $r1
	@DEBUG_VALUE: FMC_Write_OTP:high_word <- $r2
	.loc	2 753 14 is_stmt 1              @ Library/StdDriver/src/fmc.c:753:14
	ldr	r0, [lr, #-128]
.Ltmp408:
	.loc	2 753 9 is_stmt 0               @ Library/StdDriver/src/fmc.c:753:9
	lsls	r0, r0, #25
	bmi	.LBB17_25
.Ltmp409:
@ %bb.12:
	@DEBUG_VALUE: FMC_Write_OTP:low_word <- [DW_OP_LLVM_entry_value 1] $r1
	@DEBUG_VALUE: FMC_Write_OTP:high_word <- $r2
	.loc	2 0 9                           @ Library/StdDriver/src/fmc.c:0:9
	movs	r0, #33
	.loc	2 760 17 is_stmt 1              @ Library/StdDriver/src/fmc.c:760:17
	str	r0, [lr, #-180]
	.loc	2 761 49                        @ Library/StdDriver/src/fmc.c:761:49
	orr	r0, r3, #3211264
	orr	r0, r0, #4
	.loc	2 761 18 is_stmt 0              @ Library/StdDriver/src/fmc.c:761:18
	str	r0, [lr, #-188]
	movs	r0, #1
	.loc	2 762 17 is_stmt 1              @ Library/StdDriver/src/fmc.c:762:17
	str	r2, [lr, #-184]
	.loc	2 763 17                        @ Library/StdDriver/src/fmc.c:763:17
	str	r0, [lr, #-176]
	.loc	2 765 12                        @ Library/StdDriver/src/fmc.c:765:12
	ldr	r0, [r1]
	umull	r0, r1, r0, r4
	mvn	r0, #1
	and.w	r0, r0, r1, lsr #2
.Ltmp410:
	@DEBUG_VALUE: FMC_Write_OTP:tout <- $r0
	.p2align	2
.LBB17_13:                              @ =>This Inner Loop Header: Depth=1
	@DEBUG_VALUE: FMC_Write_OTP:tout <- $r0
	@DEBUG_VALUE: FMC_Write_OTP:low_word <- [DW_OP_LLVM_entry_value 1] $r1
	@DEBUG_VALUE: FMC_Write_OTP:high_word <- $r2
	@DEBUG_VALUE: FMC_Write_OTP:tout <- [DW_OP_constu 1, DW_OP_minus, DW_OP_stack_value] $r0
	.loc	2 766 25                        @ Library/StdDriver/src/fmc.c:766:25
	cbz	r0, .LBB17_26
.Ltmp411:
@ %bb.14:                               @   in Loop: Header=BB17_13 Depth=1
	@DEBUG_VALUE: FMC_Write_OTP:tout <- [DW_OP_constu 1, DW_OP_minus, DW_OP_stack_value] $r0
	@DEBUG_VALUE: FMC_Write_OTP:low_word <- [DW_OP_LLVM_entry_value 1] $r1
	@DEBUG_VALUE: FMC_Write_OTP:high_word <- $r2
	@DEBUG_VALUE: FMC_Write_OTP:tout <- [DW_OP_constu 1, DW_OP_minus, DW_OP_stack_value] $r0
	.loc	2 766 34 is_stmt 0              @ Library/StdDriver/src/fmc.c:766:34
	ldr.w	r1, [lr]
	.loc	2 766 5                         @ Library/StdDriver/src/fmc.c:766:5
	lsls	r1, r1, #31
	beq	.LBB17_23
.Ltmp412:
@ %bb.15:                               @   in Loop: Header=BB17_13 Depth=1
	@DEBUG_VALUE: FMC_Write_OTP:tout <- [DW_OP_constu 1, DW_OP_minus, DW_OP_stack_value] $r0
	@DEBUG_VALUE: FMC_Write_OTP:low_word <- [DW_OP_LLVM_entry_value 1] $r1
	@DEBUG_VALUE: FMC_Write_OTP:high_word <- $r2
	@DEBUG_VALUE: FMC_Write_OTP:tout <- [DW_OP_constu 2, DW_OP_minus, DW_OP_stack_value] $r0
	.loc	2 766 34                        @ Library/StdDriver/src/fmc.c:766:34
	ldr.w	r1, [lr]
	.loc	2 766 5                         @ Library/StdDriver/src/fmc.c:766:5
	lsls	r1, r1, #31
	beq	.LBB17_21
.Ltmp413:
@ %bb.16:                               @   in Loop: Header=BB17_13 Depth=1
	@DEBUG_VALUE: FMC_Write_OTP:tout <- [DW_OP_constu 2, DW_OP_minus, DW_OP_stack_value] $r0
	@DEBUG_VALUE: FMC_Write_OTP:low_word <- [DW_OP_LLVM_entry_value 1] $r1
	@DEBUG_VALUE: FMC_Write_OTP:high_word <- $r2
	@DEBUG_VALUE: FMC_Write_OTP:tout <- [DW_OP_constu 2, DW_OP_minus, DW_OP_constu 1, DW_OP_minus, DW_OP_stack_value] $r0
	.loc	2 766 25                        @ Library/StdDriver/src/fmc.c:766:25
	cmp	r0, #2
	beq	.LBB17_26
.Ltmp414:
@ %bb.17:                               @   in Loop: Header=BB17_13 Depth=1
	@DEBUG_VALUE: FMC_Write_OTP:tout <- [DW_OP_constu 2, DW_OP_minus, DW_OP_constu 1, DW_OP_minus, DW_OP_stack_value] $r0
	@DEBUG_VALUE: FMC_Write_OTP:low_word <- [DW_OP_LLVM_entry_value 1] $r1
	@DEBUG_VALUE: FMC_Write_OTP:high_word <- $r2
	@DEBUG_VALUE: FMC_Write_OTP:tout <- [DW_OP_constu 3, DW_OP_minus, DW_OP_stack_value] $r0
	.loc	2 766 34                        @ Library/StdDriver/src/fmc.c:766:34
	ldr.w	r1, [lr]
	.loc	2 766 5                         @ Library/StdDriver/src/fmc.c:766:5
	lsls	r1, r1, #31
	beq	.LBB17_22
.Ltmp415:
@ %bb.18:                               @   in Loop: Header=BB17_13 Depth=1
	@DEBUG_VALUE: FMC_Write_OTP:tout <- [DW_OP_constu 3, DW_OP_minus, DW_OP_stack_value] $r0
	@DEBUG_VALUE: FMC_Write_OTP:low_word <- [DW_OP_LLVM_entry_value 1] $r1
	@DEBUG_VALUE: FMC_Write_OTP:high_word <- $r2
	@DEBUG_VALUE: FMC_Write_OTP:tout <- [DW_OP_constu 3, DW_OP_minus, DW_OP_constu 1, DW_OP_minus, DW_OP_stack_value] $r0
	.loc	2 766 34                        @ Library/StdDriver/src/fmc.c:766:34
	ldr.w	r1, [lr]
	.loc	2 766 17                        @ Library/StdDriver/src/fmc.c:766:17
	subs	r0, #4
.Ltmp416:
	@DEBUG_VALUE: FMC_Write_OTP:tout <- $r0
	.loc	2 766 5                         @ Library/StdDriver/src/fmc.c:766:5
	lsls	r1, r1, #31
	bne	.LBB17_13
.Ltmp417:
@ %bb.19:
	@DEBUG_VALUE: FMC_Write_OTP:tout <- $r0
	@DEBUG_VALUE: FMC_Write_OTP:low_word <- [DW_OP_LLVM_entry_value 1] $r1
	@DEBUG_VALUE: FMC_Write_OTP:high_word <- $r2
	.loc	2 767 14 is_stmt 1              @ Library/StdDriver/src/fmc.c:767:14
	adds	r0, #1
.Ltmp418:
	.loc	2 0 14 is_stmt 0                @ Library/StdDriver/src/fmc.c:0:14
	b	.LBB17_23
.Ltmp419:
.LBB17_20:
	@DEBUG_VALUE: FMC_Write_OTP:tout <- [DW_OP_constu 3, DW_OP_minus, DW_OP_stack_value] $r0
	@DEBUG_VALUE: FMC_Write_OTP:low_word <- [DW_OP_LLVM_entry_value 1] $r1
	@DEBUG_VALUE: FMC_Write_OTP:high_word <- $r2
	.loc	2 747 14 is_stmt 1              @ Library/StdDriver/src/fmc.c:747:14
	subs	r0, #2
.Ltmp420:
	.loc	2 747 9 is_stmt 0               @ Library/StdDriver/src/fmc.c:747:9
	cmp	r0, #1
	bne	.LBB17_11
	b	.LBB17_26
.Ltmp421:
.LBB17_21:
	@DEBUG_VALUE: FMC_Write_OTP:tout <- [DW_OP_constu 2, DW_OP_minus, DW_OP_stack_value] $r0
	@DEBUG_VALUE: FMC_Write_OTP:low_word <- [DW_OP_LLVM_entry_value 1] $r1
	@DEBUG_VALUE: FMC_Write_OTP:high_word <- $r2
	.loc	2 767 14 is_stmt 1              @ Library/StdDriver/src/fmc.c:767:14
	subs	r0, #1
.Ltmp422:
	.loc	2 0 14 is_stmt 0                @ Library/StdDriver/src/fmc.c:0:14
	b	.LBB17_23
.Ltmp423:
.LBB17_22:
	@DEBUG_VALUE: FMC_Write_OTP:tout <- [DW_OP_constu 3, DW_OP_minus, DW_OP_stack_value] $r0
	@DEBUG_VALUE: FMC_Write_OTP:low_word <- [DW_OP_LLVM_entry_value 1] $r1
	@DEBUG_VALUE: FMC_Write_OTP:high_word <- $r2
	.loc	2 767 14                        @ Library/StdDriver/src/fmc.c:767:14
	subs	r0, #2
.Ltmp424:
.LBB17_23:
	@DEBUG_VALUE: FMC_Write_OTP:low_word <- [DW_OP_LLVM_entry_value 1] $r1
	@DEBUG_VALUE: FMC_Write_OTP:high_word <- $r2
	.loc	2 767 9                         @ Library/StdDriver/src/fmc.c:767:9
	cmp	r0, #1
	beq	.LBB17_26
.Ltmp425:
@ %bb.24:
	@DEBUG_VALUE: FMC_Write_OTP:low_word <- [DW_OP_LLVM_entry_value 1] $r1
	@DEBUG_VALUE: FMC_Write_OTP:high_word <- $r2
	.loc	2 773 14 is_stmt 1              @ Library/StdDriver/src/fmc.c:773:14
	ldr	r0, [lr, #-128]
.Ltmp426:
	.loc	2 773 9 is_stmt 0               @ Library/StdDriver/src/fmc.c:773:9
	lsls	r0, r0, #25
	itt	pl
	movpl	r0, #0
	.loc	2 780 1 epilogue_begin is_stmt 1 @ Library/StdDriver/src/fmc.c:780:1
	poppl	{r4, r5, r6, pc}
.Ltmp427:
.LBB17_25:
	@DEBUG_VALUE: FMC_Write_OTP:low_word <- [DW_OP_LLVM_entry_value 1] $r1
	@DEBUG_VALUE: FMC_Write_OTP:high_word <- $r2
	.loc	2 0 0 is_stmt 0                 @ Library/StdDriver/src/fmc.c:0:0
	ldr	r0, [lr, #-128]
	orr	r0, r0, #64
	str	r0, [lr, #-128]
.Ltmp428:
.LBB17_26:
	@DEBUG_VALUE: FMC_Write_OTP:low_word <- [DW_OP_LLVM_entry_value 1] $r1
	@DEBUG_VALUE: FMC_Write_OTP:high_word <- $r2
	mov.w	r0, #-1
.Ltmp429:
.LBB17_27:
	@DEBUG_VALUE: FMC_Write_OTP:high_word <- $r2
	str.w	r0, [r12]
	.loc	2 780 1 epilogue_begin          @ Library/StdDriver/src/fmc.c:780:1
	pop	{r4, r5, r6, pc}
.Ltmp430:
.Lfunc_end17:
	.size	FMC_Write_OTP, .Lfunc_end17-FMC_Write_OTP
	.cfi_endproc
	.cantunwind
	.fnend
                                        @ -- End function
	.section	.text.FMC_Read_OTP,"ax",%progbits
	.hidden	FMC_Read_OTP                    @ -- Begin function FMC_Read_OTP
	.globl	FMC_Read_OTP
	.p2align	2
	.type	FMC_Read_OTP,%function
	.code	16                              @ @FMC_Read_OTP
	.thumb_func
FMC_Read_OTP:
.Lfunc_begin18:
	.loc	2 796 0 is_stmt 1               @ Library/StdDriver/src/fmc.c:796:0
	.fnstart
	.cfi_startproc
@ %bb.0:
	@DEBUG_VALUE: FMC_Read_OTP:otp_num <- $r0
	@DEBUG_VALUE: FMC_Read_OTP:low_word <- $r1
	@DEBUG_VALUE: FMC_Read_OTP:high_word <- $r2
	.save	{r4, lr}
	push	{r4, lr}
	.cfi_def_cfa_offset 8
	.cfi_offset lr, -4
	.cfi_offset r4, -8
.Ltmp431:
	.loc	2 799 22 prologue_end           @ Library/StdDriver/src/fmc.c:799:22
	movw	r12, :lower16:g_FMC_i32ErrCode
	movt	r12, :upper16:g_FMC_i32ErrCode
	mov.w	lr, #0
	.loc	2 801 9                         @ Library/StdDriver/src/fmc.c:801:9
	cmp.w	r0, #256
	.loc	2 799 22                        @ Library/StdDriver/src/fmc.c:799:22
	str.w	lr, [r12]
	.loc	2 801 9                         @ Library/StdDriver/src/fmc.c:801:9
	blo	.LBB18_2
.Ltmp432:
@ %bb.1:
	@DEBUG_VALUE: FMC_Read_OTP:high_word <- $r2
	@DEBUG_VALUE: FMC_Read_OTP:low_word <- $r1
	@DEBUG_VALUE: FMC_Read_OTP:otp_num <- $r0
	.loc	2 0 9 is_stmt 0                 @ Library/StdDriver/src/fmc.c:0:9
	mvn	r0, #1
.Ltmp433:
	@DEBUG_VALUE: FMC_Read_OTP:otp_num <- [DW_OP_LLVM_entry_value 1] $r0
	.loc	2 803 26 is_stmt 1              @ Library/StdDriver/src/fmc.c:803:26
	str.w	r0, [r12]
.Ltmp434:
	.loc	2 832 1 epilogue_begin          @ Library/StdDriver/src/fmc.c:832:1
	pop	{r4, pc}
.Ltmp435:
.LBB18_2:
	@DEBUG_VALUE: FMC_Read_OTP:high_word <- $r2
	@DEBUG_VALUE: FMC_Read_OTP:low_word <- $r1
	@DEBUG_VALUE: FMC_Read_OTP:otp_num <- $r0
	.loc	2 0 1 is_stmt 0                 @ Library/StdDriver/src/fmc.c:0:1
	movw	r3, #49344
	movt	r3, #16384
	movs	r4, #64
	.loc	2 807 17 is_stmt 1              @ Library/StdDriver/src/fmc.c:807:17
	str	r4, [r3, #-180]
	mov.w	r4, #3211264
	.loc	2 808 33                        @ Library/StdDriver/src/fmc.c:808:33
	orr.w	r0, r4, r0, lsl #3
.Ltmp436:
	@DEBUG_VALUE: FMC_Read_OTP:otp_num <- [DW_OP_LLVM_entry_value 1] $r0
	.loc	2 808 18 is_stmt 0              @ Library/StdDriver/src/fmc.c:808:18
	str	r0, [r3, #-188]
	movs	r0, #1
	.loc	2 809 17 is_stmt 1              @ Library/StdDriver/src/fmc.c:809:17
	str	lr, [r3, #-184]
	.loc	2 810 17                        @ Library/StdDriver/src/fmc.c:810:17
	str	r0, [r3, #-176]
	.loc	2 812 12                        @ Library/StdDriver/src/fmc.c:812:12
	movw	r0, :lower16:SystemCoreClock
	movt	r0, :upper16:SystemCoreClock
	ldr	r0, [r0]
	movw	r4, #52429
	movt	r4, #52428
	umull	r0, r4, r0, r4
	mvn	r0, #1
	and.w	r0, r0, r4, lsr #2
.Ltmp437:
	@DEBUG_VALUE: FMC_Read_OTP:tout <- $r0
	.p2align	2
.LBB18_3:                               @ =>This Inner Loop Header: Depth=1
	@DEBUG_VALUE: FMC_Read_OTP:tout <- $r0
	@DEBUG_VALUE: FMC_Read_OTP:otp_num <- [DW_OP_LLVM_entry_value 1] $r0
	@DEBUG_VALUE: FMC_Read_OTP:high_word <- $r2
	@DEBUG_VALUE: FMC_Read_OTP:low_word <- $r1
	@DEBUG_VALUE: FMC_Read_OTP:tout <- [DW_OP_constu 1, DW_OP_minus, DW_OP_stack_value] $r0
	.loc	2 813 25                        @ Library/StdDriver/src/fmc.c:813:25
	cbz	r0, .LBB18_16
.Ltmp438:
@ %bb.4:                                @   in Loop: Header=BB18_3 Depth=1
	@DEBUG_VALUE: FMC_Read_OTP:tout <- [DW_OP_constu 1, DW_OP_minus, DW_OP_stack_value] $r0
	@DEBUG_VALUE: FMC_Read_OTP:otp_num <- [DW_OP_LLVM_entry_value 1] $r0
	@DEBUG_VALUE: FMC_Read_OTP:high_word <- $r2
	@DEBUG_VALUE: FMC_Read_OTP:low_word <- $r1
	@DEBUG_VALUE: FMC_Read_OTP:tout <- [DW_OP_constu 1, DW_OP_minus, DW_OP_stack_value] $r0
	.loc	2 813 34 is_stmt 0              @ Library/StdDriver/src/fmc.c:813:34
	ldr	r4, [r3]
	.loc	2 813 5                         @ Library/StdDriver/src/fmc.c:813:5
	lsls	r4, r4, #31
	beq	.LBB18_11
.Ltmp439:
@ %bb.5:                                @   in Loop: Header=BB18_3 Depth=1
	@DEBUG_VALUE: FMC_Read_OTP:tout <- [DW_OP_constu 1, DW_OP_minus, DW_OP_stack_value] $r0
	@DEBUG_VALUE: FMC_Read_OTP:otp_num <- [DW_OP_LLVM_entry_value 1] $r0
	@DEBUG_VALUE: FMC_Read_OTP:high_word <- $r2
	@DEBUG_VALUE: FMC_Read_OTP:low_word <- $r1
	@DEBUG_VALUE: FMC_Read_OTP:tout <- [DW_OP_constu 2, DW_OP_minus, DW_OP_stack_value] $r0
	.loc	2 813 34                        @ Library/StdDriver/src/fmc.c:813:34
	ldr	r4, [r3]
	.loc	2 813 5                         @ Library/StdDriver/src/fmc.c:813:5
	lsls	r4, r4, #31
	beq	.LBB18_10
.Ltmp440:
@ %bb.6:                                @   in Loop: Header=BB18_3 Depth=1
	@DEBUG_VALUE: FMC_Read_OTP:tout <- [DW_OP_constu 2, DW_OP_minus, DW_OP_stack_value] $r0
	@DEBUG_VALUE: FMC_Read_OTP:otp_num <- [DW_OP_LLVM_entry_value 1] $r0
	@DEBUG_VALUE: FMC_Read_OTP:high_word <- $r2
	@DEBUG_VALUE: FMC_Read_OTP:low_word <- $r1
	@DEBUG_VALUE: FMC_Read_OTP:tout <- [DW_OP_constu 2, DW_OP_minus, DW_OP_constu 1, DW_OP_minus, DW_OP_stack_value] $r0
	.loc	2 813 25                        @ Library/StdDriver/src/fmc.c:813:25
	cmp	r0, #2
	beq	.LBB18_16
.Ltmp441:
@ %bb.7:                                @   in Loop: Header=BB18_3 Depth=1
	@DEBUG_VALUE: FMC_Read_OTP:tout <- [DW_OP_constu 2, DW_OP_minus, DW_OP_constu 1, DW_OP_minus, DW_OP_stack_value] $r0
	@DEBUG_VALUE: FMC_Read_OTP:otp_num <- [DW_OP_LLVM_entry_value 1] $r0
	@DEBUG_VALUE: FMC_Read_OTP:high_word <- $r2
	@DEBUG_VALUE: FMC_Read_OTP:low_word <- $r1
	@DEBUG_VALUE: FMC_Read_OTP:tout <- [DW_OP_constu 3, DW_OP_minus, DW_OP_stack_value] $r0
	.loc	2 813 34                        @ Library/StdDriver/src/fmc.c:813:34
	ldr	r4, [r3]
	.loc	2 813 5                         @ Library/StdDriver/src/fmc.c:813:5
	lsls	r4, r4, #31
	beq	.LBB18_15
.Ltmp442:
@ %bb.8:                                @   in Loop: Header=BB18_3 Depth=1
	@DEBUG_VALUE: FMC_Read_OTP:tout <- [DW_OP_constu 3, DW_OP_minus, DW_OP_stack_value] $r0
	@DEBUG_VALUE: FMC_Read_OTP:otp_num <- [DW_OP_LLVM_entry_value 1] $r0
	@DEBUG_VALUE: FMC_Read_OTP:high_word <- $r2
	@DEBUG_VALUE: FMC_Read_OTP:low_word <- $r1
	@DEBUG_VALUE: FMC_Read_OTP:tout <- [DW_OP_constu 3, DW_OP_minus, DW_OP_constu 1, DW_OP_minus, DW_OP_stack_value] $r0
	.loc	2 813 34                        @ Library/StdDriver/src/fmc.c:813:34
	ldr	r4, [r3]
	.loc	2 813 17                        @ Library/StdDriver/src/fmc.c:813:17
	subs	r0, #4
.Ltmp443:
	@DEBUG_VALUE: FMC_Read_OTP:tout <- $r0
	.loc	2 813 5                         @ Library/StdDriver/src/fmc.c:813:5
	lsls	r4, r4, #31
	bne	.LBB18_3
.Ltmp444:
@ %bb.9:
	@DEBUG_VALUE: FMC_Read_OTP:tout <- $r0
	@DEBUG_VALUE: FMC_Read_OTP:otp_num <- [DW_OP_LLVM_entry_value 1] $r0
	@DEBUG_VALUE: FMC_Read_OTP:high_word <- $r2
	@DEBUG_VALUE: FMC_Read_OTP:low_word <- $r1
	.loc	2 814 14 is_stmt 1              @ Library/StdDriver/src/fmc.c:814:14
	adds	r0, #1
.Ltmp445:
	.loc	2 814 9 is_stmt 0               @ Library/StdDriver/src/fmc.c:814:9
	cmp	r0, #1
	bne	.LBB18_12
	b	.LBB18_16
.Ltmp446:
.LBB18_10:
	@DEBUG_VALUE: FMC_Read_OTP:tout <- [DW_OP_constu 2, DW_OP_minus, DW_OP_stack_value] $r0
	@DEBUG_VALUE: FMC_Read_OTP:otp_num <- [DW_OP_LLVM_entry_value 1] $r0
	@DEBUG_VALUE: FMC_Read_OTP:high_word <- $r2
	@DEBUG_VALUE: FMC_Read_OTP:low_word <- $r1
	.loc	2 814 14                        @ Library/StdDriver/src/fmc.c:814:14
	subs	r0, #1
.Ltmp447:
.LBB18_11:
	@DEBUG_VALUE: FMC_Read_OTP:otp_num <- [DW_OP_LLVM_entry_value 1] $r0
	@DEBUG_VALUE: FMC_Read_OTP:high_word <- $r2
	@DEBUG_VALUE: FMC_Read_OTP:low_word <- $r1
	.loc	2 814 9                         @ Library/StdDriver/src/fmc.c:814:9
	cmp	r0, #1
	beq	.LBB18_16
.Ltmp448:
.LBB18_12:
	@DEBUG_VALUE: FMC_Read_OTP:otp_num <- [DW_OP_LLVM_entry_value 1] $r0
	@DEBUG_VALUE: FMC_Read_OTP:high_word <- $r2
	@DEBUG_VALUE: FMC_Read_OTP:low_word <- $r1
	.loc	2 820 14 is_stmt 1              @ Library/StdDriver/src/fmc.c:820:14
	ldr	r0, [r3, #-128]
.Ltmp449:
	.loc	2 820 9 is_stmt 0               @ Library/StdDriver/src/fmc.c:820:9
	lsls	r0, r0, #25
	bmi	.LBB18_14
.Ltmp450:
@ %bb.13:
	@DEBUG_VALUE: FMC_Read_OTP:otp_num <- [DW_OP_LLVM_entry_value 1] $r0
	@DEBUG_VALUE: FMC_Read_OTP:high_word <- $r2
	@DEBUG_VALUE: FMC_Read_OTP:low_word <- $r1
	.loc	2 828 26 is_stmt 1              @ Library/StdDriver/src/fmc.c:828:26
	ldr	r0, [r3, #-64]
	.loc	2 828 19 is_stmt 0              @ Library/StdDriver/src/fmc.c:828:19
	str	r0, [r1]
	.loc	2 829 27 is_stmt 1              @ Library/StdDriver/src/fmc.c:829:27
	ldr	r0, [r3, #-60]
	.loc	2 829 20 is_stmt 0              @ Library/StdDriver/src/fmc.c:829:20
	str	r0, [r2]
	movs	r0, #0
.Ltmp451:
	.loc	2 832 1 epilogue_begin is_stmt 1 @ Library/StdDriver/src/fmc.c:832:1
	pop	{r4, pc}
.Ltmp452:
.LBB18_14:
	@DEBUG_VALUE: FMC_Read_OTP:otp_num <- [DW_OP_LLVM_entry_value 1] $r0
	@DEBUG_VALUE: FMC_Read_OTP:high_word <- $r2
	@DEBUG_VALUE: FMC_Read_OTP:low_word <- $r1
	.loc	2 822 21                        @ Library/StdDriver/src/fmc.c:822:21
	ldr	r0, [r3, #-128]
	orr	r0, r0, #64
	str	r0, [r3, #-128]
	b	.LBB18_16
.Ltmp453:
.LBB18_15:
	@DEBUG_VALUE: FMC_Read_OTP:tout <- [DW_OP_constu 3, DW_OP_minus, DW_OP_stack_value] $r0
	@DEBUG_VALUE: FMC_Read_OTP:otp_num <- [DW_OP_LLVM_entry_value 1] $r0
	@DEBUG_VALUE: FMC_Read_OTP:high_word <- $r2
	@DEBUG_VALUE: FMC_Read_OTP:low_word <- $r1
	.loc	2 814 14                        @ Library/StdDriver/src/fmc.c:814:14
	subs	r0, #2
.Ltmp454:
	.loc	2 814 9 is_stmt 0               @ Library/StdDriver/src/fmc.c:814:9
	cmp	r0, #1
	bne	.LBB18_12
.Ltmp455:
.LBB18_16:
	@DEBUG_VALUE: FMC_Read_OTP:otp_num <- [DW_OP_LLVM_entry_value 1] $r0
	@DEBUG_VALUE: FMC_Read_OTP:high_word <- $r2
	@DEBUG_VALUE: FMC_Read_OTP:low_word <- $r1
	.loc	2 0 9                           @ Library/StdDriver/src/fmc.c:0:9
	mov.w	r0, #-1
	str.w	r0, [r12]
	.loc	2 832 1 epilogue_begin is_stmt 1 @ Library/StdDriver/src/fmc.c:832:1
	pop	{r4, pc}
.Ltmp456:
.Lfunc_end18:
	.size	FMC_Read_OTP, .Lfunc_end18-FMC_Read_OTP
	.cfi_endproc
	.cantunwind
	.fnend
                                        @ -- End function
	.section	.text.FMC_Lock_OTP,"ax",%progbits
	.hidden	FMC_Lock_OTP                    @ -- Begin function FMC_Lock_OTP
	.globl	FMC_Lock_OTP
	.p2align	2
	.type	FMC_Lock_OTP,%function
	.code	16                              @ @FMC_Lock_OTP
	.thumb_func
FMC_Lock_OTP:
.Lfunc_begin19:
	.loc	2 846 0                         @ Library/StdDriver/src/fmc.c:846:0
	.fnstart
	.cfi_startproc
@ %bb.0:
	@DEBUG_VALUE: FMC_Lock_OTP:otp_num <- $r0
	.save	{r7, lr}
	push	{r7, lr}
	.cfi_def_cfa_offset 8
	.cfi_offset lr, -4
	.cfi_offset r7, -8
.Ltmp457:
	.loc	2 849 22 prologue_end           @ Library/StdDriver/src/fmc.c:849:22
	movw	r12, :lower16:g_FMC_i32ErrCode
	mov	r1, r0
.Ltmp458:
	@DEBUG_VALUE: FMC_Lock_OTP:otp_num <- $r1
	movt	r12, :upper16:g_FMC_i32ErrCode
	mov.w	lr, #0
	.loc	2 851 9                         @ Library/StdDriver/src/fmc.c:851:9
	cmp	r0, #255
	mvn	r0, #1
	.loc	2 849 22                        @ Library/StdDriver/src/fmc.c:849:22
	str.w	lr, [r12]
	.loc	2 851 9                         @ Library/StdDriver/src/fmc.c:851:9
	bhi	.LBB19_14
.Ltmp459:
@ %bb.1:
	@DEBUG_VALUE: FMC_Lock_OTP:otp_num <- $r1
	.loc	2 0 9 is_stmt 0                 @ Library/StdDriver/src/fmc.c:0:9
	movw	r3, #49344
	movt	r3, #16384
	movs	r2, #33
	.loc	2 857 17 is_stmt 1              @ Library/StdDriver/src/fmc.c:857:17
	str	r2, [r3, #-180]
	movw	r2, #2048
	movt	r2, #49
	.loc	2 858 43                        @ Library/StdDriver/src/fmc.c:858:43
	orr.w	r1, r2, r1, lsl #2
.Ltmp460:
	.loc	2 858 18 is_stmt 0              @ Library/StdDriver/src/fmc.c:858:18
	str	r1, [r3, #-188]
	movs	r1, #1
	.loc	2 859 17 is_stmt 1              @ Library/StdDriver/src/fmc.c:859:17
	str	lr, [r3, #-184]
	.loc	2 860 17                        @ Library/StdDriver/src/fmc.c:860:17
	str	r1, [r3, #-176]
	.loc	2 862 12                        @ Library/StdDriver/src/fmc.c:862:12
	movw	r1, :lower16:SystemCoreClock
	movt	r1, :upper16:SystemCoreClock
	ldr	r1, [r1]
	movw	r2, #52429
	movt	r2, #52428
	umull	r1, r2, r1, r2
	and.w	r0, r0, r2, lsr #2
.Ltmp461:
	@DEBUG_VALUE: FMC_Lock_OTP:tout <- $r0
	.p2align	2
.LBB19_2:                               @ =>This Inner Loop Header: Depth=1
	@DEBUG_VALUE: FMC_Lock_OTP:tout <- $r0
	@DEBUG_VALUE: FMC_Lock_OTP:tout <- [DW_OP_constu 1, DW_OP_minus, DW_OP_stack_value] $r0
	.loc	2 863 25                        @ Library/StdDriver/src/fmc.c:863:25
	cbz	r0, .LBB19_13
.Ltmp462:
@ %bb.3:                                @   in Loop: Header=BB19_2 Depth=1
	@DEBUG_VALUE: FMC_Lock_OTP:tout <- [DW_OP_constu 1, DW_OP_minus, DW_OP_stack_value] $r0
	@DEBUG_VALUE: FMC_Lock_OTP:tout <- [DW_OP_constu 1, DW_OP_minus, DW_OP_stack_value] $r0
	.loc	2 863 34 is_stmt 0              @ Library/StdDriver/src/fmc.c:863:34
	ldr	r1, [r3]
	.loc	2 863 5                         @ Library/StdDriver/src/fmc.c:863:5
	lsls	r1, r1, #31
	beq	.LBB19_10
.Ltmp463:
@ %bb.4:                                @   in Loop: Header=BB19_2 Depth=1
	@DEBUG_VALUE: FMC_Lock_OTP:tout <- [DW_OP_constu 1, DW_OP_minus, DW_OP_stack_value] $r0
	@DEBUG_VALUE: FMC_Lock_OTP:tout <- [DW_OP_constu 2, DW_OP_minus, DW_OP_stack_value] $r0
	.loc	2 863 34                        @ Library/StdDriver/src/fmc.c:863:34
	ldr	r1, [r3]
	.loc	2 863 5                         @ Library/StdDriver/src/fmc.c:863:5
	lsls	r1, r1, #31
	beq	.LBB19_9
.Ltmp464:
@ %bb.5:                                @   in Loop: Header=BB19_2 Depth=1
	@DEBUG_VALUE: FMC_Lock_OTP:tout <- [DW_OP_constu 2, DW_OP_minus, DW_OP_stack_value] $r0
	@DEBUG_VALUE: FMC_Lock_OTP:tout <- [DW_OP_constu 2, DW_OP_minus, DW_OP_constu 1, DW_OP_minus, DW_OP_stack_value] $r0
	.loc	2 863 25                        @ Library/StdDriver/src/fmc.c:863:25
	cmp	r0, #2
	beq	.LBB19_13
.Ltmp465:
@ %bb.6:                                @   in Loop: Header=BB19_2 Depth=1
	@DEBUG_VALUE: FMC_Lock_OTP:tout <- [DW_OP_constu 2, DW_OP_minus, DW_OP_constu 1, DW_OP_minus, DW_OP_stack_value] $r0
	@DEBUG_VALUE: FMC_Lock_OTP:tout <- [DW_OP_constu 3, DW_OP_minus, DW_OP_stack_value] $r0
	.loc	2 863 34                        @ Library/StdDriver/src/fmc.c:863:34
	ldr	r1, [r3]
	.loc	2 863 5                         @ Library/StdDriver/src/fmc.c:863:5
	lsls	r1, r1, #31
	beq	.LBB19_15
.Ltmp466:
@ %bb.7:                                @   in Loop: Header=BB19_2 Depth=1
	@DEBUG_VALUE: FMC_Lock_OTP:tout <- [DW_OP_constu 3, DW_OP_minus, DW_OP_stack_value] $r0
	@DEBUG_VALUE: FMC_Lock_OTP:tout <- [DW_OP_constu 3, DW_OP_minus, DW_OP_constu 1, DW_OP_minus, DW_OP_stack_value] $r0
	.loc	2 863 34                        @ Library/StdDriver/src/fmc.c:863:34
	ldr	r1, [r3]
	.loc	2 863 17                        @ Library/StdDriver/src/fmc.c:863:17
	subs	r0, #4
.Ltmp467:
	@DEBUG_VALUE: FMC_Lock_OTP:tout <- $r0
	.loc	2 863 5                         @ Library/StdDriver/src/fmc.c:863:5
	lsls	r1, r1, #31
	bne	.LBB19_2
.Ltmp468:
@ %bb.8:
	@DEBUG_VALUE: FMC_Lock_OTP:tout <- $r0
	.loc	2 864 14 is_stmt 1              @ Library/StdDriver/src/fmc.c:864:14
	adds	r0, #1
.Ltmp469:
	.loc	2 864 9 is_stmt 0               @ Library/StdDriver/src/fmc.c:864:9
	cmp	r0, #1
	bne	.LBB19_11
	b	.LBB19_13
.LBB19_9:
.Ltmp470:
	@DEBUG_VALUE: FMC_Lock_OTP:tout <- [DW_OP_constu 2, DW_OP_minus, DW_OP_stack_value] $r0
	.loc	2 864 14                        @ Library/StdDriver/src/fmc.c:864:14
	subs	r0, #1
.Ltmp471:
.LBB19_10:
	.loc	2 864 9                         @ Library/StdDriver/src/fmc.c:864:9
	cmp	r0, #1
	beq	.LBB19_13
.LBB19_11:
.Ltmp472:
	.loc	2 870 14 is_stmt 1              @ Library/StdDriver/src/fmc.c:870:14
	ldr	r0, [r3, #-128]
.Ltmp473:
	.loc	2 870 9 is_stmt 0               @ Library/StdDriver/src/fmc.c:870:9
	lsls	r0, r0, #25
	itt	pl
	movpl	r0, #0
	.loc	2 877 1 epilogue_begin is_stmt 1 @ Library/StdDriver/src/fmc.c:877:1
	poppl	{r7, pc}
.LBB19_12:
.Ltmp474:
	.loc	2 872 21                        @ Library/StdDriver/src/fmc.c:872:21
	ldr	r0, [r3, #-128]
	orr	r0, r0, #64
	str	r0, [r3, #-128]
.Ltmp475:
.LBB19_13:
	.loc	2 0 21 is_stmt 0                @ Library/StdDriver/src/fmc.c:0:21
	mov.w	r0, #-1
.LBB19_14:
	str.w	r0, [r12]
	.loc	2 877 1 epilogue_begin is_stmt 1 @ Library/StdDriver/src/fmc.c:877:1
	pop	{r7, pc}
.LBB19_15:
.Ltmp476:
	@DEBUG_VALUE: FMC_Lock_OTP:tout <- [DW_OP_constu 3, DW_OP_minus, DW_OP_stack_value] $r0
	.loc	2 864 14                        @ Library/StdDriver/src/fmc.c:864:14
	subs	r0, #2
.Ltmp477:
	.loc	2 864 9 is_stmt 0               @ Library/StdDriver/src/fmc.c:864:9
	cmp	r0, #1
	bne	.LBB19_11
	b	.LBB19_13
.Ltmp478:
.Lfunc_end19:
	.size	FMC_Lock_OTP, .Lfunc_end19-FMC_Lock_OTP
	.cfi_endproc
	.cantunwind
	.fnend
                                        @ -- End function
	.section	.text.FMC_Is_OTP_Locked,"ax",%progbits
	.hidden	FMC_Is_OTP_Locked               @ -- Begin function FMC_Is_OTP_Locked
	.globl	FMC_Is_OTP_Locked
	.p2align	2
	.type	FMC_Is_OTP_Locked,%function
	.code	16                              @ @FMC_Is_OTP_Locked
	.thumb_func
FMC_Is_OTP_Locked:
.Lfunc_begin20:
	.fnstart
	.cfi_startproc
@ %bb.0:
	@DEBUG_VALUE: FMC_Is_OTP_Locked:otp_num <- $r0
	.loc	2 895 22 prologue_end is_stmt 1 @ Library/StdDriver/src/fmc.c:895:22
	movw	r12, :lower16:g_FMC_i32ErrCode
	mov	r1, r0
.Ltmp479:
	@DEBUG_VALUE: FMC_Is_OTP_Locked:otp_num <- $r1
	movt	r12, :upper16:g_FMC_i32ErrCode
	movs	r2, #0
	mvn	r3, #1
	.loc	2 897 9                         @ Library/StdDriver/src/fmc.c:897:9
	cmp	r0, #255
	mvn	r0, #1
	.loc	2 895 22                        @ Library/StdDriver/src/fmc.c:895:22
	str.w	r2, [r12]
	.loc	2 897 9                         @ Library/StdDriver/src/fmc.c:897:9
	bls	.LBB20_2
.Ltmp480:
@ %bb.1:
	@DEBUG_VALUE: FMC_Is_OTP_Locked:otp_num <- $r1
	.loc	2 0 0 is_stmt 0                 @ Library/StdDriver/src/fmc.c:0:0
	str.w	r3, [r12]
	.loc	2 930 1 is_stmt 1               @ Library/StdDriver/src/fmc.c:930:1
	bx	lr
.Ltmp481:
.LBB20_2:
	@DEBUG_VALUE: FMC_Is_OTP_Locked:otp_num <- $r1
	.loc	2 0 1 is_stmt 0                 @ Library/StdDriver/src/fmc.c:0:1
	movw	r0, #49344
	movt	r0, #16384
	.loc	2 903 17 is_stmt 1              @ Library/StdDriver/src/fmc.c:903:17
	str	r2, [r0, #-180]
	movw	r2, #2048
	movt	r2, #49
	.loc	2 904 43                        @ Library/StdDriver/src/fmc.c:904:43
	orr.w	r1, r2, r1, lsl #2
.Ltmp482:
	.loc	2 904 18 is_stmt 0              @ Library/StdDriver/src/fmc.c:904:18
	str	r1, [r0, #-188]
	movs	r1, #1
	.loc	2 905 17 is_stmt 1              @ Library/StdDriver/src/fmc.c:905:17
	str	r1, [r0, #-176]
	.loc	2 907 12                        @ Library/StdDriver/src/fmc.c:907:12
	movw	r1, :lower16:SystemCoreClock
	movt	r1, :upper16:SystemCoreClock
	ldr	r1, [r1]
	movw	r2, #52429
	movt	r2, #52428
	umull	r1, r2, r1, r2
	and.w	r1, r3, r2, lsr #2
.Ltmp483:
	@DEBUG_VALUE: FMC_Is_OTP_Locked:tout <- $r1
	.p2align	2
.LBB20_3:                               @ =>This Inner Loop Header: Depth=1
	@DEBUG_VALUE: FMC_Is_OTP_Locked:tout <- $r1
	@DEBUG_VALUE: FMC_Is_OTP_Locked:tout <- [DW_OP_constu 1, DW_OP_minus, DW_OP_stack_value] $r1
	.loc	2 908 25                        @ Library/StdDriver/src/fmc.c:908:25
	cbz	r1, .LBB20_17
.Ltmp484:
@ %bb.4:                                @   in Loop: Header=BB20_3 Depth=1
	@DEBUG_VALUE: FMC_Is_OTP_Locked:tout <- [DW_OP_constu 1, DW_OP_minus, DW_OP_stack_value] $r1
	@DEBUG_VALUE: FMC_Is_OTP_Locked:tout <- [DW_OP_constu 1, DW_OP_minus, DW_OP_stack_value] $r1
	.loc	2 908 34 is_stmt 0              @ Library/StdDriver/src/fmc.c:908:34
	ldr	r2, [r0]
	.loc	2 908 5                         @ Library/StdDriver/src/fmc.c:908:5
	lsls	r2, r2, #31
	beq	.LBB20_11
.Ltmp485:
@ %bb.5:                                @   in Loop: Header=BB20_3 Depth=1
	@DEBUG_VALUE: FMC_Is_OTP_Locked:tout <- [DW_OP_constu 1, DW_OP_minus, DW_OP_stack_value] $r1
	@DEBUG_VALUE: FMC_Is_OTP_Locked:tout <- [DW_OP_constu 2, DW_OP_minus, DW_OP_stack_value] $r1
	.loc	2 908 34                        @ Library/StdDriver/src/fmc.c:908:34
	ldr	r2, [r0]
	.loc	2 908 5                         @ Library/StdDriver/src/fmc.c:908:5
	lsls	r2, r2, #31
	beq	.LBB20_10
.Ltmp486:
@ %bb.6:                                @   in Loop: Header=BB20_3 Depth=1
	@DEBUG_VALUE: FMC_Is_OTP_Locked:tout <- [DW_OP_constu 2, DW_OP_minus, DW_OP_stack_value] $r1
	@DEBUG_VALUE: FMC_Is_OTP_Locked:tout <- [DW_OP_constu 2, DW_OP_minus, DW_OP_constu 1, DW_OP_minus, DW_OP_stack_value] $r1
	.loc	2 908 25                        @ Library/StdDriver/src/fmc.c:908:25
	cmp	r1, #2
	beq	.LBB20_17
.Ltmp487:
@ %bb.7:                                @   in Loop: Header=BB20_3 Depth=1
	@DEBUG_VALUE: FMC_Is_OTP_Locked:tout <- [DW_OP_constu 2, DW_OP_minus, DW_OP_constu 1, DW_OP_minus, DW_OP_stack_value] $r1
	@DEBUG_VALUE: FMC_Is_OTP_Locked:tout <- [DW_OP_constu 3, DW_OP_minus, DW_OP_stack_value] $r1
	.loc	2 908 34                        @ Library/StdDriver/src/fmc.c:908:34
	ldr	r2, [r0]
	.loc	2 908 5                         @ Library/StdDriver/src/fmc.c:908:5
	lsls	r2, r2, #31
	beq	.LBB20_16
.Ltmp488:
@ %bb.8:                                @   in Loop: Header=BB20_3 Depth=1
	@DEBUG_VALUE: FMC_Is_OTP_Locked:tout <- [DW_OP_constu 3, DW_OP_minus, DW_OP_stack_value] $r1
	@DEBUG_VALUE: FMC_Is_OTP_Locked:tout <- [DW_OP_constu 3, DW_OP_minus, DW_OP_constu 1, DW_OP_minus, DW_OP_stack_value] $r1
	.loc	2 908 34                        @ Library/StdDriver/src/fmc.c:908:34
	ldr	r2, [r0]
	.loc	2 908 17                        @ Library/StdDriver/src/fmc.c:908:17
	subs	r1, #4
.Ltmp489:
	@DEBUG_VALUE: FMC_Is_OTP_Locked:tout <- $r1
	.loc	2 908 5                         @ Library/StdDriver/src/fmc.c:908:5
	lsls	r2, r2, #31
	bne	.LBB20_3
.Ltmp490:
@ %bb.9:
	@DEBUG_VALUE: FMC_Is_OTP_Locked:tout <- $r1
	.loc	2 909 14 is_stmt 1              @ Library/StdDriver/src/fmc.c:909:14
	adds	r1, #1
.Ltmp491:
	.loc	2 909 9 is_stmt 0               @ Library/StdDriver/src/fmc.c:909:9
	cmp	r1, #1
	bne	.LBB20_12
	b	.LBB20_17
.LBB20_10:
.Ltmp492:
	@DEBUG_VALUE: FMC_Is_OTP_Locked:tout <- [DW_OP_constu 2, DW_OP_minus, DW_OP_stack_value] $r1
	.loc	2 909 14                        @ Library/StdDriver/src/fmc.c:909:14
	subs	r1, #1
.Ltmp493:
.LBB20_11:
	.loc	2 909 9                         @ Library/StdDriver/src/fmc.c:909:9
	cmp	r1, #1
	beq	.LBB20_17
.LBB20_12:
.Ltmp494:
	.loc	2 915 14 is_stmt 1              @ Library/StdDriver/src/fmc.c:915:14
	ldr	r1, [r0, #-128]
.Ltmp495:
	.loc	2 915 9 is_stmt 0               @ Library/StdDriver/src/fmc.c:915:9
	lsls	r1, r1, #25
	bmi	.LBB20_15
@ %bb.13:
.Ltmp496:
	.loc	2 923 18 is_stmt 1              @ Library/StdDriver/src/fmc.c:923:18
	ldr	r0, [r0, #-184]
.Ltmp497:
	.loc	2 923 13 is_stmt 0              @ Library/StdDriver/src/fmc.c:923:13
	adds	r0, #1
	itt	eq
	moveq	r0, #0
.Ltmp498:
	.loc	2 930 1 is_stmt 1               @ Library/StdDriver/src/fmc.c:930:1
	bxeq	lr
.LBB20_14:
	.loc	2 0 1 is_stmt 0                 @ Library/StdDriver/src/fmc.c:0:1
	movs	r0, #1
	mov.w	r3, #-1
	str.w	r3, [r12]
	.loc	2 930 1                         @ Library/StdDriver/src/fmc.c:930:1
	bx	lr
.LBB20_15:
.Ltmp499:
	.loc	2 917 21 is_stmt 1              @ Library/StdDriver/src/fmc.c:917:21
	ldr	r1, [r0, #-128]
	orr	r1, r1, #64
	str	r1, [r0, #-128]
	b	.LBB20_17
.Ltmp500:
.LBB20_16:
	@DEBUG_VALUE: FMC_Is_OTP_Locked:tout <- [DW_OP_constu 3, DW_OP_minus, DW_OP_stack_value] $r1
	.loc	2 909 14                        @ Library/StdDriver/src/fmc.c:909:14
	subs	r1, #2
.Ltmp501:
	.loc	2 909 9 is_stmt 0               @ Library/StdDriver/src/fmc.c:909:9
	cmp	r1, #1
	bne	.LBB20_12
.LBB20_17:
	.loc	2 0 9                           @ Library/StdDriver/src/fmc.c:0:9
	mov.w	r3, #-1
	mov.w	r0, #-1
	str.w	r3, [r12]
	.loc	2 930 1 is_stmt 1               @ Library/StdDriver/src/fmc.c:930:1
	bx	lr
.Ltmp502:
.Lfunc_end20:
	.size	FMC_Is_OTP_Locked, .Lfunc_end20-FMC_Is_OTP_Locked
	.cfi_endproc
	.cantunwind
	.fnend
                                        @ -- End function
	.section	.text.FMC_ReadConfig,"ax",%progbits
	.hidden	FMC_ReadConfig                  @ -- Begin function FMC_ReadConfig
	.globl	FMC_ReadConfig
	.p2align	2
	.type	FMC_ReadConfig,%function
	.code	16                              @ @FMC_ReadConfig
	.thumb_func
FMC_ReadConfig:
.Lfunc_begin21:
	.loc	2 947 0                         @ Library/StdDriver/src/fmc.c:947:0
	.fnstart
	.cfi_startproc
@ %bb.0:
	@DEBUG_VALUE: FMC_ReadConfig:u32Config <- $r0
	@DEBUG_VALUE: FMC_ReadConfig:u32Count <- $r1
	.save	{r4, r5, r7, lr}
	push	{r4, r5, r7, lr}
	.cfi_def_cfa_offset 16
	.cfi_offset lr, -4
	.cfi_offset r7, -8
	.cfi_offset r5, -12
	.cfi_offset r4, -16
	movw	r3, #49344
.Ltmp503:
	.loc	2 435 22 prologue_end           @ Library/StdDriver/src/fmc.c:435:22
	movw	r12, :lower16:g_FMC_i32ErrCode
	movt	r3, #16384
.Ltmp504:
	@DEBUG_VALUE: FMC_Read:u32Addr <- 3145728
	@DEBUG_VALUE: FMC_ReadConfig:ret <- 0
	movt	r12, :upper16:g_FMC_i32ErrCode
	movs	r2, #0
	str.w	r2, [r12]
	.loc	2 436 17                        @ Library/StdDriver/src/fmc.c:436:17
	str	r2, [r3, #-180]
	mov.w	r2, #3145728
	.loc	2 437 18                        @ Library/StdDriver/src/fmc.c:437:18
	str	r2, [r3, #-188]
	movs	r2, #1
	.loc	2 440 12                        @ Library/StdDriver/src/fmc.c:440:12
	movw	lr, :lower16:SystemCoreClock
	.loc	2 438 17                        @ Library/StdDriver/src/fmc.c:438:17
	str	r2, [r3, #-176]
	.loc	2 440 12                        @ Library/StdDriver/src/fmc.c:440:12
	movt	lr, :upper16:SystemCoreClock
	ldr.w	r2, [lr]
	movw	r4, #52429
	movt	r4, #52428
	umull	r2, r5, r2, r4
	mvn	r2, #1
	and.w	r2, r2, r5, lsr #2
.Ltmp505:
	@DEBUG_VALUE: FMC_Read:tout <- $r2
	.p2align	2
.LBB21_1:                               @ =>This Inner Loop Header: Depth=1
	@DEBUG_VALUE: FMC_Read:tout <- $r2
	@DEBUG_VALUE: FMC_ReadConfig:ret <- 0
	@DEBUG_VALUE: FMC_Read:u32Addr <- 3145728
	@DEBUG_VALUE: FMC_ReadConfig:u32Count <- $r1
	@DEBUG_VALUE: FMC_ReadConfig:u32Config <- $r0
	@DEBUG_VALUE: FMC_Read:tout <- [DW_OP_constu 1, DW_OP_minus, DW_OP_stack_value] $r2
	.loc	2 441 25                        @ Library/StdDriver/src/fmc.c:441:25
	cbz	r2, .LBB21_10
.Ltmp506:
@ %bb.2:                                @   in Loop: Header=BB21_1 Depth=1
	@DEBUG_VALUE: FMC_Read:tout <- [DW_OP_constu 1, DW_OP_minus, DW_OP_stack_value] $r2
	@DEBUG_VALUE: FMC_ReadConfig:ret <- 0
	@DEBUG_VALUE: FMC_Read:u32Addr <- 3145728
	@DEBUG_VALUE: FMC_ReadConfig:u32Count <- $r1
	@DEBUG_VALUE: FMC_ReadConfig:u32Config <- $r0
	@DEBUG_VALUE: FMC_Read:tout <- [DW_OP_constu 1, DW_OP_minus, DW_OP_stack_value] $r2
	.loc	2 441 34 is_stmt 0              @ Library/StdDriver/src/fmc.c:441:34
	ldr	r5, [r3]
	.loc	2 441 5                         @ Library/StdDriver/src/fmc.c:441:5
	lsls	r5, r5, #31
	beq	.LBB21_9
.Ltmp507:
@ %bb.3:                                @   in Loop: Header=BB21_1 Depth=1
	@DEBUG_VALUE: FMC_Read:tout <- [DW_OP_constu 1, DW_OP_minus, DW_OP_stack_value] $r2
	@DEBUG_VALUE: FMC_ReadConfig:ret <- 0
	@DEBUG_VALUE: FMC_Read:u32Addr <- 3145728
	@DEBUG_VALUE: FMC_ReadConfig:u32Count <- $r1
	@DEBUG_VALUE: FMC_ReadConfig:u32Config <- $r0
	@DEBUG_VALUE: FMC_Read:tout <- [DW_OP_constu 2, DW_OP_minus, DW_OP_stack_value] $r2
	.loc	2 441 34                        @ Library/StdDriver/src/fmc.c:441:34
	ldr	r5, [r3]
	.loc	2 441 5                         @ Library/StdDriver/src/fmc.c:441:5
	lsls	r5, r5, #31
	beq	.LBB21_8
.Ltmp508:
@ %bb.4:                                @   in Loop: Header=BB21_1 Depth=1
	@DEBUG_VALUE: FMC_Read:tout <- [DW_OP_constu 2, DW_OP_minus, DW_OP_stack_value] $r2
	@DEBUG_VALUE: FMC_ReadConfig:ret <- 0
	@DEBUG_VALUE: FMC_Read:u32Addr <- 3145728
	@DEBUG_VALUE: FMC_ReadConfig:u32Count <- $r1
	@DEBUG_VALUE: FMC_ReadConfig:u32Config <- $r0
	@DEBUG_VALUE: FMC_Read:tout <- [DW_OP_constu 2, DW_OP_minus, DW_OP_constu 1, DW_OP_minus, DW_OP_stack_value] $r2
	.loc	2 441 25                        @ Library/StdDriver/src/fmc.c:441:25
	cmp	r2, #2
	beq	.LBB21_10
.Ltmp509:
@ %bb.5:                                @   in Loop: Header=BB21_1 Depth=1
	@DEBUG_VALUE: FMC_Read:tout <- [DW_OP_constu 2, DW_OP_minus, DW_OP_constu 1, DW_OP_minus, DW_OP_stack_value] $r2
	@DEBUG_VALUE: FMC_ReadConfig:ret <- 0
	@DEBUG_VALUE: FMC_Read:u32Addr <- 3145728
	@DEBUG_VALUE: FMC_ReadConfig:u32Count <- $r1
	@DEBUG_VALUE: FMC_ReadConfig:u32Config <- $r0
	@DEBUG_VALUE: FMC_Read:tout <- [DW_OP_constu 3, DW_OP_minus, DW_OP_stack_value] $r2
	.loc	2 441 34                        @ Library/StdDriver/src/fmc.c:441:34
	ldr	r5, [r3]
	.loc	2 441 5                         @ Library/StdDriver/src/fmc.c:441:5
	lsls	r5, r5, #31
	beq	.LBB21_11
.Ltmp510:
@ %bb.6:                                @   in Loop: Header=BB21_1 Depth=1
	@DEBUG_VALUE: FMC_Read:tout <- [DW_OP_constu 3, DW_OP_minus, DW_OP_stack_value] $r2
	@DEBUG_VALUE: FMC_ReadConfig:ret <- 0
	@DEBUG_VALUE: FMC_Read:u32Addr <- 3145728
	@DEBUG_VALUE: FMC_ReadConfig:u32Count <- $r1
	@DEBUG_VALUE: FMC_ReadConfig:u32Config <- $r0
	@DEBUG_VALUE: FMC_Read:tout <- [DW_OP_constu 3, DW_OP_minus, DW_OP_constu 1, DW_OP_minus, DW_OP_stack_value] $r2
	.loc	2 441 34                        @ Library/StdDriver/src/fmc.c:441:34
	ldr	r5, [r3]
	.loc	2 441 17                        @ Library/StdDriver/src/fmc.c:441:17
	subs	r2, #4
.Ltmp511:
	@DEBUG_VALUE: FMC_Read:tout <- $r2
	.loc	2 441 5                         @ Library/StdDriver/src/fmc.c:441:5
	lsls	r5, r5, #31
	bne	.LBB21_1
.Ltmp512:
@ %bb.7:
	@DEBUG_VALUE: FMC_Read:tout <- $r2
	@DEBUG_VALUE: FMC_ReadConfig:ret <- 0
	@DEBUG_VALUE: FMC_Read:u32Addr <- 3145728
	@DEBUG_VALUE: FMC_ReadConfig:u32Count <- $r1
	@DEBUG_VALUE: FMC_ReadConfig:u32Config <- $r0
	.loc	2 442 14 is_stmt 1              @ Library/StdDriver/src/fmc.c:442:14
	adds	r2, #1
.Ltmp513:
	.loc	2 442 9 is_stmt 0               @ Library/StdDriver/src/fmc.c:442:9
	cmp	r2, #1
	beq	.LBB21_10
	b	.LBB21_12
.Ltmp514:
.LBB21_8:
	@DEBUG_VALUE: FMC_Read:tout <- [DW_OP_constu 2, DW_OP_minus, DW_OP_stack_value] $r2
	@DEBUG_VALUE: FMC_ReadConfig:ret <- 0
	@DEBUG_VALUE: FMC_Read:u32Addr <- 3145728
	@DEBUG_VALUE: FMC_ReadConfig:u32Count <- $r1
	@DEBUG_VALUE: FMC_ReadConfig:u32Config <- $r0
	.loc	2 442 14                        @ Library/StdDriver/src/fmc.c:442:14
	subs	r2, #1
.Ltmp515:
.LBB21_9:
	@DEBUG_VALUE: FMC_ReadConfig:ret <- 0
	@DEBUG_VALUE: FMC_Read:u32Addr <- 3145728
	@DEBUG_VALUE: FMC_ReadConfig:u32Count <- $r1
	@DEBUG_VALUE: FMC_ReadConfig:u32Config <- $r0
	.loc	2 442 9                         @ Library/StdDriver/src/fmc.c:442:9
	cmp	r2, #1
	bne	.LBB21_12
.Ltmp516:
.LBB21_10:
	@DEBUG_VALUE: FMC_ReadConfig:ret <- 0
	@DEBUG_VALUE: FMC_Read:u32Addr <- 3145728
	@DEBUG_VALUE: FMC_ReadConfig:u32Count <- $r1
	@DEBUG_VALUE: FMC_ReadConfig:u32Config <- $r0
	.loc	2 0 9                           @ Library/StdDriver/src/fmc.c:0:9
	mov.w	r2, #-1
.Ltmp517:
	.loc	2 444 26 is_stmt 1              @ Library/StdDriver/src/fmc.c:444:26
	str.w	r2, [r12]
	b	.LBB21_13
.Ltmp518:
.LBB21_11:
	@DEBUG_VALUE: FMC_Read:tout <- [DW_OP_constu 3, DW_OP_minus, DW_OP_stack_value] $r2
	@DEBUG_VALUE: FMC_ReadConfig:ret <- 0
	@DEBUG_VALUE: FMC_Read:u32Addr <- 3145728
	@DEBUG_VALUE: FMC_ReadConfig:u32Count <- $r1
	@DEBUG_VALUE: FMC_ReadConfig:u32Config <- $r0
	.loc	2 442 14                        @ Library/StdDriver/src/fmc.c:442:14
	subs	r2, #2
.Ltmp519:
	.loc	2 442 9 is_stmt 0               @ Library/StdDriver/src/fmc.c:442:9
	cmp	r2, #1
	beq	.LBB21_10
.Ltmp520:
.LBB21_12:
	@DEBUG_VALUE: FMC_ReadConfig:ret <- 0
	@DEBUG_VALUE: FMC_Read:u32Addr <- 3145728
	@DEBUG_VALUE: FMC_ReadConfig:u32Count <- $r1
	@DEBUG_VALUE: FMC_ReadConfig:u32Config <- $r0
	.loc	2 447 17 is_stmt 1              @ Library/StdDriver/src/fmc.c:447:17
	ldr	r2, [r3, #-184]
.Ltmp521:
.LBB21_13:
	@DEBUG_VALUE: FMC_ReadConfig:ret <- 0
	@DEBUG_VALUE: FMC_ReadConfig:u32Count <- $r1
	@DEBUG_VALUE: FMC_ReadConfig:u32Config <- $r0
	.loc	2 950 18                        @ Library/StdDriver/src/fmc.c:950:18
	str	r2, [r0]
.Ltmp522:
	.loc	2 952 9                         @ Library/StdDriver/src/fmc.c:952:9
	ldr.w	r2, [r12]
.Ltmp523:
	.loc	2 952 9 is_stmt 0               @ Library/StdDriver/src/fmc.c:952:9
	cbz	r2, .LBB21_15
.Ltmp524:
.LBB21_14:
	@DEBUG_VALUE: FMC_ReadConfig:ret <- 0
	@DEBUG_VALUE: FMC_ReadConfig:u32Count <- $r1
	@DEBUG_VALUE: FMC_ReadConfig:u32Config <- $r0
	.loc	2 964 1 is_stmt 1               @ Library/StdDriver/src/fmc.c:964:1
	mov	r0, r2
.Ltmp525:
	@DEBUG_VALUE: FMC_ReadConfig:u32Config <- [DW_OP_LLVM_entry_value 1] $r0
	.loc	2 964 1 epilogue_begin is_stmt 0 @ Library/StdDriver/src/fmc.c:964:1
	pop	{r4, r5, r7, pc}
.Ltmp526:
.LBB21_15:
	@DEBUG_VALUE: FMC_ReadConfig:ret <- 0
	@DEBUG_VALUE: FMC_ReadConfig:u32Count <- $r1
	@DEBUG_VALUE: FMC_ReadConfig:u32Config <- $r0
	.loc	2 955 9 is_stmt 1               @ Library/StdDriver/src/fmc.c:955:9
	cmp	r1, #2
	mvn	r2, #1
	blo	.LBB21_14
.Ltmp527:
@ %bb.16:
	@DEBUG_VALUE: FMC_ReadConfig:ret <- 0
	@DEBUG_VALUE: FMC_ReadConfig:u32Count <- $r1
	@DEBUG_VALUE: FMC_ReadConfig:u32Config <- $r0
	.loc	2 0 9 is_stmt 0                 @ Library/StdDriver/src/fmc.c:0:9
	movs	r1, #0
.Ltmp528:
	@DEBUG_VALUE: FMC_ReadConfig:u32Count <- [DW_OP_LLVM_entry_value 1] $r1
	@DEBUG_VALUE: FMC_Read:u32Addr <- 3145732
	.loc	2 435 22 is_stmt 1              @ Library/StdDriver/src/fmc.c:435:22
	str.w	r1, [r12]
	.loc	2 436 17                        @ Library/StdDriver/src/fmc.c:436:17
	str	r1, [r3, #-180]
	movs	r1, #4
	movt	r1, #48
	.loc	2 437 18                        @ Library/StdDriver/src/fmc.c:437:18
	str	r1, [r3, #-188]
	movs	r1, #1
	.loc	2 438 17                        @ Library/StdDriver/src/fmc.c:438:17
	str	r1, [r3, #-176]
	.loc	2 440 12                        @ Library/StdDriver/src/fmc.c:440:12
	ldr.w	r1, [lr]
	umull	r1, r5, r1, r4
	and.w	r1, r2, r5, lsr #2
.Ltmp529:
	@DEBUG_VALUE: FMC_Read:tout <- $r1
	.p2align	2
.LBB21_17:                              @ =>This Inner Loop Header: Depth=1
	@DEBUG_VALUE: FMC_Read:tout <- $r1
	@DEBUG_VALUE: FMC_Read:u32Addr <- 3145732
	@DEBUG_VALUE: FMC_ReadConfig:u32Count <- [DW_OP_LLVM_entry_value 1] $r1
	@DEBUG_VALUE: FMC_ReadConfig:ret <- 0
	@DEBUG_VALUE: FMC_ReadConfig:u32Config <- $r0
	@DEBUG_VALUE: FMC_Read:tout <- [DW_OP_constu 1, DW_OP_minus, DW_OP_stack_value] $r1
	.loc	2 441 25                        @ Library/StdDriver/src/fmc.c:441:25
	cbz	r1, .LBB21_26
.Ltmp530:
@ %bb.18:                               @   in Loop: Header=BB21_17 Depth=1
	@DEBUG_VALUE: FMC_Read:tout <- [DW_OP_constu 1, DW_OP_minus, DW_OP_stack_value] $r1
	@DEBUG_VALUE: FMC_Read:u32Addr <- 3145732
	@DEBUG_VALUE: FMC_ReadConfig:u32Count <- [DW_OP_LLVM_entry_value 1] $r1
	@DEBUG_VALUE: FMC_ReadConfig:ret <- 0
	@DEBUG_VALUE: FMC_ReadConfig:u32Config <- $r0
	@DEBUG_VALUE: FMC_Read:tout <- [DW_OP_constu 1, DW_OP_minus, DW_OP_stack_value] $r1
	.loc	2 441 34 is_stmt 0              @ Library/StdDriver/src/fmc.c:441:34
	ldr	r2, [r3]
	.loc	2 441 5                         @ Library/StdDriver/src/fmc.c:441:5
	lsls	r2, r2, #31
	beq	.LBB21_25
.Ltmp531:
@ %bb.19:                               @   in Loop: Header=BB21_17 Depth=1
	@DEBUG_VALUE: FMC_Read:tout <- [DW_OP_constu 1, DW_OP_minus, DW_OP_stack_value] $r1
	@DEBUG_VALUE: FMC_Read:u32Addr <- 3145732
	@DEBUG_VALUE: FMC_ReadConfig:u32Count <- [DW_OP_LLVM_entry_value 1] $r1
	@DEBUG_VALUE: FMC_ReadConfig:ret <- 0
	@DEBUG_VALUE: FMC_ReadConfig:u32Config <- $r0
	@DEBUG_VALUE: FMC_Read:tout <- [DW_OP_constu 2, DW_OP_minus, DW_OP_stack_value] $r1
	.loc	2 441 34                        @ Library/StdDriver/src/fmc.c:441:34
	ldr	r2, [r3]
	.loc	2 441 5                         @ Library/StdDriver/src/fmc.c:441:5
	lsls	r2, r2, #31
	beq	.LBB21_24
.Ltmp532:
@ %bb.20:                               @   in Loop: Header=BB21_17 Depth=1
	@DEBUG_VALUE: FMC_Read:tout <- [DW_OP_constu 2, DW_OP_minus, DW_OP_stack_value] $r1
	@DEBUG_VALUE: FMC_Read:u32Addr <- 3145732
	@DEBUG_VALUE: FMC_ReadConfig:u32Count <- [DW_OP_LLVM_entry_value 1] $r1
	@DEBUG_VALUE: FMC_ReadConfig:ret <- 0
	@DEBUG_VALUE: FMC_ReadConfig:u32Config <- $r0
	@DEBUG_VALUE: FMC_Read:tout <- [DW_OP_constu 2, DW_OP_minus, DW_OP_constu 1, DW_OP_minus, DW_OP_stack_value] $r1
	.loc	2 441 25                        @ Library/StdDriver/src/fmc.c:441:25
	cmp	r1, #2
	beq	.LBB21_26
.Ltmp533:
@ %bb.21:                               @   in Loop: Header=BB21_17 Depth=1
	@DEBUG_VALUE: FMC_Read:tout <- [DW_OP_constu 2, DW_OP_minus, DW_OP_constu 1, DW_OP_minus, DW_OP_stack_value] $r1
	@DEBUG_VALUE: FMC_Read:u32Addr <- 3145732
	@DEBUG_VALUE: FMC_ReadConfig:u32Count <- [DW_OP_LLVM_entry_value 1] $r1
	@DEBUG_VALUE: FMC_ReadConfig:ret <- 0
	@DEBUG_VALUE: FMC_ReadConfig:u32Config <- $r0
	@DEBUG_VALUE: FMC_Read:tout <- [DW_OP_constu 3, DW_OP_minus, DW_OP_stack_value] $r1
	.loc	2 441 34                        @ Library/StdDriver/src/fmc.c:441:34
	ldr	r2, [r3]
	.loc	2 441 5                         @ Library/StdDriver/src/fmc.c:441:5
	lsls	r2, r2, #31
	beq	.LBB21_27
.Ltmp534:
@ %bb.22:                               @   in Loop: Header=BB21_17 Depth=1
	@DEBUG_VALUE: FMC_Read:tout <- [DW_OP_constu 3, DW_OP_minus, DW_OP_stack_value] $r1
	@DEBUG_VALUE: FMC_Read:u32Addr <- 3145732
	@DEBUG_VALUE: FMC_ReadConfig:u32Count <- [DW_OP_LLVM_entry_value 1] $r1
	@DEBUG_VALUE: FMC_ReadConfig:ret <- 0
	@DEBUG_VALUE: FMC_ReadConfig:u32Config <- $r0
	@DEBUG_VALUE: FMC_Read:tout <- [DW_OP_constu 3, DW_OP_minus, DW_OP_constu 1, DW_OP_minus, DW_OP_stack_value] $r1
	.loc	2 441 34                        @ Library/StdDriver/src/fmc.c:441:34
	ldr	r2, [r3]
	.loc	2 441 17                        @ Library/StdDriver/src/fmc.c:441:17
	subs	r1, #4
.Ltmp535:
	@DEBUG_VALUE: FMC_Read:tout <- $r1
	.loc	2 441 5                         @ Library/StdDriver/src/fmc.c:441:5
	lsls	r2, r2, #31
	bne	.LBB21_17
.Ltmp536:
@ %bb.23:
	@DEBUG_VALUE: FMC_Read:tout <- $r1
	@DEBUG_VALUE: FMC_Read:u32Addr <- 3145732
	@DEBUG_VALUE: FMC_ReadConfig:u32Count <- [DW_OP_LLVM_entry_value 1] $r1
	@DEBUG_VALUE: FMC_ReadConfig:ret <- 0
	@DEBUG_VALUE: FMC_ReadConfig:u32Config <- $r0
	.loc	2 442 14 is_stmt 1              @ Library/StdDriver/src/fmc.c:442:14
	adds	r1, #1
.Ltmp537:
	.loc	2 442 9 is_stmt 0               @ Library/StdDriver/src/fmc.c:442:9
	cmp	r1, #1
	beq	.LBB21_26
	b	.LBB21_28
.Ltmp538:
.LBB21_24:
	@DEBUG_VALUE: FMC_Read:tout <- [DW_OP_constu 2, DW_OP_minus, DW_OP_stack_value] $r1
	@DEBUG_VALUE: FMC_Read:u32Addr <- 3145732
	@DEBUG_VALUE: FMC_ReadConfig:u32Count <- [DW_OP_LLVM_entry_value 1] $r1
	@DEBUG_VALUE: FMC_ReadConfig:ret <- 0
	@DEBUG_VALUE: FMC_ReadConfig:u32Config <- $r0
	.loc	2 442 14                        @ Library/StdDriver/src/fmc.c:442:14
	subs	r1, #1
.Ltmp539:
.LBB21_25:
	@DEBUG_VALUE: FMC_Read:u32Addr <- 3145732
	@DEBUG_VALUE: FMC_ReadConfig:u32Count <- [DW_OP_LLVM_entry_value 1] $r1
	@DEBUG_VALUE: FMC_ReadConfig:ret <- 0
	@DEBUG_VALUE: FMC_ReadConfig:u32Config <- $r0
	.loc	2 442 9                         @ Library/StdDriver/src/fmc.c:442:9
	cmp	r1, #1
	bne	.LBB21_28
.Ltmp540:
.LBB21_26:
	@DEBUG_VALUE: FMC_Read:u32Addr <- 3145732
	@DEBUG_VALUE: FMC_ReadConfig:u32Count <- [DW_OP_LLVM_entry_value 1] $r1
	@DEBUG_VALUE: FMC_ReadConfig:ret <- 0
	@DEBUG_VALUE: FMC_ReadConfig:u32Config <- $r0
	.loc	2 0 9                           @ Library/StdDriver/src/fmc.c:0:9
	mov.w	r1, #-1
.Ltmp541:
	.loc	2 444 26 is_stmt 1              @ Library/StdDriver/src/fmc.c:444:26
	str.w	r1, [r12]
	b	.LBB21_29
.Ltmp542:
.LBB21_27:
	@DEBUG_VALUE: FMC_Read:tout <- [DW_OP_constu 3, DW_OP_minus, DW_OP_stack_value] $r1
	@DEBUG_VALUE: FMC_Read:u32Addr <- 3145732
	@DEBUG_VALUE: FMC_ReadConfig:u32Count <- [DW_OP_LLVM_entry_value 1] $r1
	@DEBUG_VALUE: FMC_ReadConfig:ret <- 0
	@DEBUG_VALUE: FMC_ReadConfig:u32Config <- $r0
	.loc	2 442 14                        @ Library/StdDriver/src/fmc.c:442:14
	subs	r1, #2
.Ltmp543:
	.loc	2 442 9 is_stmt 0               @ Library/StdDriver/src/fmc.c:442:9
	cmp	r1, #1
	beq	.LBB21_26
.Ltmp544:
.LBB21_28:
	@DEBUG_VALUE: FMC_Read:u32Addr <- 3145732
	@DEBUG_VALUE: FMC_ReadConfig:u32Count <- [DW_OP_LLVM_entry_value 1] $r1
	@DEBUG_VALUE: FMC_ReadConfig:ret <- 0
	@DEBUG_VALUE: FMC_ReadConfig:u32Config <- $r0
	.loc	2 447 17 is_stmt 1              @ Library/StdDriver/src/fmc.c:447:17
	ldr	r1, [r3, #-184]
.Ltmp545:
.LBB21_29:
	@DEBUG_VALUE: FMC_ReadConfig:u32Count <- [DW_OP_LLVM_entry_value 1] $r1
	@DEBUG_VALUE: FMC_ReadConfig:ret <- 0
	@DEBUG_VALUE: FMC_ReadConfig:u32Config <- $r0
	.loc	2 0 17 is_stmt 0                @ Library/StdDriver/src/fmc.c:0:17
	movs	r2, #0
	.loc	2 961 22 is_stmt 1              @ Library/StdDriver/src/fmc.c:961:22
	str	r1, [r0, #4]
.Ltmp546:
	.loc	2 964 1                         @ Library/StdDriver/src/fmc.c:964:1
	mov	r0, r2
.Ltmp547:
	@DEBUG_VALUE: FMC_ReadConfig:u32Config <- [DW_OP_LLVM_entry_value 1] $r0
	.loc	2 964 1 epilogue_begin is_stmt 0 @ Library/StdDriver/src/fmc.c:964:1
	pop	{r4, r5, r7, pc}
.Ltmp548:
.Lfunc_end21:
	.size	FMC_ReadConfig, .Lfunc_end21-FMC_ReadConfig
	.cfi_endproc
	.cantunwind
	.fnend
                                        @ -- End function
	.section	.text.FMC_WriteConfig,"ax",%progbits
	.hidden	FMC_WriteConfig                 @ -- Begin function FMC_WriteConfig
	.globl	FMC_WriteConfig
	.p2align	2
	.type	FMC_WriteConfig,%function
	.code	16                              @ @FMC_WriteConfig
	.thumb_func
FMC_WriteConfig:
.Lfunc_begin22:
	.loc	2 980 0 is_stmt 1               @ Library/StdDriver/src/fmc.c:980:0
	.fnstart
	.cfi_startproc
@ %bb.0:
	@DEBUG_VALUE: FMC_WriteConfig:u32Config <- $r0
	@DEBUG_VALUE: FMC_WriteConfig:u32Count <- $r1
	.save	{r4, r5, r6, r7, r8, r9, r10, r11, lr}
	push.w	{r4, r5, r6, r7, r8, r9, r10, r11, lr}
	.cfi_def_cfa_offset 36
	.cfi_offset lr, -4
	.cfi_offset r11, -8
	.cfi_offset r10, -12
	.cfi_offset r9, -16
	.cfi_offset r8, -20
	.cfi_offset r7, -24
	.cfi_offset r6, -28
	.cfi_offset r5, -32
	.cfi_offset r4, -36
	movw	r2, #49344
	movt	r2, #16384
.Ltmp549:
	.loc	2 983 5 prologue_end            @ Library/StdDriver/src/fmc.c:983:5
	ldr	r3, [r2, #-192]
	movs	r7, #0
	orr	r3, r3, #16
	str	r3, [r2, #-192]
.Ltmp550:
	@DEBUG_VALUE: FMC_Erase:u32PageAddr <- 3145728
	.loc	2 147 22                        @ Library/StdDriver/src/fmc.c:147:22
	movw	r3, :lower16:g_FMC_i32ErrCode
	movt	r3, :upper16:g_FMC_i32ErrCode
	str	r7, [r3]
	movs	r7, #34
	.loc	2 0 0 is_stmt 0                 @ Library/StdDriver/src/fmc.c:0:0
	str	r7, [r2, #-180]
	mov.w	r7, #3145728
	.loc	2 155 18 is_stmt 1              @ Library/StdDriver/src/fmc.c:155:18
	str	r7, [r2, #-188]
	movs	r7, #1
	.loc	2 158 12                        @ Library/StdDriver/src/fmc.c:158:12
	movw	r12, :lower16:SystemCoreClock
	.loc	2 156 17                        @ Library/StdDriver/src/fmc.c:156:17
	str	r7, [r2, #-176]
	.loc	2 158 12                        @ Library/StdDriver/src/fmc.c:158:12
	movt	r12, :upper16:SystemCoreClock
	ldr.w	r4, [r12]
	movw	lr, #52429
	movt	lr, #52428
	umull	r4, r5, r4, lr
	mvn	r4, #3
	and.w	r4, r4, r5, lsr #1
.Ltmp551:
	@DEBUG_VALUE: FMC_Erase:tout <- $r4
	.p2align	2
.LBB22_1:                               @ =>This Inner Loop Header: Depth=1
	@DEBUG_VALUE: FMC_Erase:tout <- $r4
	@DEBUG_VALUE: FMC_Erase:u32PageAddr <- 3145728
	@DEBUG_VALUE: FMC_WriteConfig:u32Count <- $r1
	@DEBUG_VALUE: FMC_WriteConfig:u32Config <- $r0
	@DEBUG_VALUE: FMC_Erase:tout <- [DW_OP_constu 1, DW_OP_minus, DW_OP_stack_value] $r4
	.loc	2 159 25                        @ Library/StdDriver/src/fmc.c:159:25
	cmp	r4, #0
	beq	.LBB22_20
.Ltmp552:
@ %bb.2:                                @   in Loop: Header=BB22_1 Depth=1
	@DEBUG_VALUE: FMC_Erase:tout <- [DW_OP_constu 1, DW_OP_minus, DW_OP_stack_value] $r4
	@DEBUG_VALUE: FMC_Erase:u32PageAddr <- 3145728
	@DEBUG_VALUE: FMC_WriteConfig:u32Count <- $r1
	@DEBUG_VALUE: FMC_WriteConfig:u32Config <- $r0
	@DEBUG_VALUE: FMC_Erase:tout <- [DW_OP_constu 1, DW_OP_minus, DW_OP_stack_value] $r4
	.loc	2 159 34 is_stmt 0              @ Library/StdDriver/src/fmc.c:159:34
	ldr	r5, [r2]
	.loc	2 159 5                         @ Library/StdDriver/src/fmc.c:159:5
	lsls	r5, r5, #31
	beq	.LBB22_8
.Ltmp553:
@ %bb.3:                                @   in Loop: Header=BB22_1 Depth=1
	@DEBUG_VALUE: FMC_Erase:tout <- [DW_OP_constu 1, DW_OP_minus, DW_OP_stack_value] $r4
	@DEBUG_VALUE: FMC_Erase:u32PageAddr <- 3145728
	@DEBUG_VALUE: FMC_WriteConfig:u32Count <- $r1
	@DEBUG_VALUE: FMC_WriteConfig:u32Config <- $r0
	@DEBUG_VALUE: FMC_Erase:tout <- [DW_OP_constu 2, DW_OP_minus, DW_OP_stack_value] $r4
	.loc	2 159 34                        @ Library/StdDriver/src/fmc.c:159:34
	ldr	r5, [r2]
	.loc	2 159 5                         @ Library/StdDriver/src/fmc.c:159:5
	lsls	r5, r5, #31
	beq	.LBB22_7
.Ltmp554:
@ %bb.4:                                @   in Loop: Header=BB22_1 Depth=1
	@DEBUG_VALUE: FMC_Erase:tout <- [DW_OP_constu 2, DW_OP_minus, DW_OP_stack_value] $r4
	@DEBUG_VALUE: FMC_Erase:u32PageAddr <- 3145728
	@DEBUG_VALUE: FMC_WriteConfig:u32Count <- $r1
	@DEBUG_VALUE: FMC_WriteConfig:u32Config <- $r0
	@DEBUG_VALUE: FMC_Erase:tout <- [DW_OP_constu 3, DW_OP_minus, DW_OP_stack_value] $r4
	.loc	2 159 34                        @ Library/StdDriver/src/fmc.c:159:34
	ldr	r5, [r2]
	.loc	2 159 5                         @ Library/StdDriver/src/fmc.c:159:5
	lsls	r5, r5, #31
	beq	.LBB22_19
.Ltmp555:
@ %bb.5:                                @   in Loop: Header=BB22_1 Depth=1
	@DEBUG_VALUE: FMC_Erase:tout <- [DW_OP_constu 3, DW_OP_minus, DW_OP_stack_value] $r4
	@DEBUG_VALUE: FMC_Erase:u32PageAddr <- 3145728
	@DEBUG_VALUE: FMC_WriteConfig:u32Count <- $r1
	@DEBUG_VALUE: FMC_WriteConfig:u32Config <- $r0
	@DEBUG_VALUE: FMC_Erase:tout <- [DW_OP_constu 3, DW_OP_minus, DW_OP_constu 1, DW_OP_minus, DW_OP_stack_value] $r4
	.loc	2 159 34                        @ Library/StdDriver/src/fmc.c:159:34
	ldr	r5, [r2]
	.loc	2 159 17                        @ Library/StdDriver/src/fmc.c:159:17
	subs	r4, #4
.Ltmp556:
	@DEBUG_VALUE: FMC_Erase:tout <- $r4
	.loc	2 159 5                         @ Library/StdDriver/src/fmc.c:159:5
	lsls	r5, r5, #31
	bne	.LBB22_1
.Ltmp557:
@ %bb.6:
	@DEBUG_VALUE: FMC_Erase:tout <- $r4
	@DEBUG_VALUE: FMC_Erase:u32PageAddr <- 3145728
	@DEBUG_VALUE: FMC_WriteConfig:u32Count <- $r1
	@DEBUG_VALUE: FMC_WriteConfig:u32Config <- $r0
	.loc	2 160 14 is_stmt 1              @ Library/StdDriver/src/fmc.c:160:14
	adds	r4, #1
.Ltmp558:
	.loc	2 160 9 is_stmt 0               @ Library/StdDriver/src/fmc.c:160:9
	cmp	r4, #1
	bne	.LBB22_9
	b	.LBB22_20
.Ltmp559:
.LBB22_7:
	@DEBUG_VALUE: FMC_Erase:tout <- [DW_OP_constu 2, DW_OP_minus, DW_OP_stack_value] $r4
	@DEBUG_VALUE: FMC_Erase:u32PageAddr <- 3145728
	@DEBUG_VALUE: FMC_WriteConfig:u32Count <- $r1
	@DEBUG_VALUE: FMC_WriteConfig:u32Config <- $r0
	.loc	2 160 14                        @ Library/StdDriver/src/fmc.c:160:14
	subs	r4, #1
.Ltmp560:
.LBB22_8:
	@DEBUG_VALUE: FMC_Erase:u32PageAddr <- 3145728
	@DEBUG_VALUE: FMC_WriteConfig:u32Count <- $r1
	@DEBUG_VALUE: FMC_WriteConfig:u32Config <- $r0
	.loc	2 160 9                         @ Library/StdDriver/src/fmc.c:160:9
	cmp	r4, #1
	beq	.LBB22_20
.Ltmp561:
.LBB22_9:
	@DEBUG_VALUE: FMC_Erase:u32PageAddr <- 3145728
	@DEBUG_VALUE: FMC_WriteConfig:u32Count <- $r1
	@DEBUG_VALUE: FMC_WriteConfig:u32Config <- $r0
	.loc	2 166 14 is_stmt 1              @ Library/StdDriver/src/fmc.c:166:14
	ldr	r4, [r2, #-192]
.Ltmp562:
	.loc	2 166 9 is_stmt 0               @ Library/StdDriver/src/fmc.c:166:9
	lsls	r4, r4, #25
	bmi	.LBB22_18
.Ltmp563:
@ %bb.10:
	@DEBUG_VALUE: FMC_WriteConfig:u32Count <- $r1
	@DEBUG_VALUE: FMC_WriteConfig:u32Config <- $r0
	.loc	2 0 9                           @ Library/StdDriver/src/fmc.c:0:9
	movs	r4, #0
.Ltmp564:
	@DEBUG_VALUE: FMC_Read:u32Addr <- 3145728
	.loc	2 435 22 is_stmt 1              @ Library/StdDriver/src/fmc.c:435:22
	str	r4, [r3]
	.loc	2 436 17                        @ Library/StdDriver/src/fmc.c:436:17
	str	r4, [r2, #-180]
	mov.w	r4, #3145728
	.loc	2 437 18                        @ Library/StdDriver/src/fmc.c:437:18
	str	r4, [r2, #-188]
	movs	r4, #1
	.loc	2 438 17                        @ Library/StdDriver/src/fmc.c:438:17
	str	r4, [r2, #-176]
	.loc	2 440 12                        @ Library/StdDriver/src/fmc.c:440:12
	ldr.w	r4, [r12]
	umull	r4, r5, r4, lr
	mvn	r4, #1
	and.w	r4, r4, r5, lsr #2
.Ltmp565:
	@DEBUG_VALUE: FMC_Read:tout <- $r4
	.p2align	2
.LBB22_11:                              @ =>This Inner Loop Header: Depth=1
	@DEBUG_VALUE: FMC_Read:tout <- $r4
	@DEBUG_VALUE: FMC_Read:u32Addr <- 3145728
	@DEBUG_VALUE: FMC_WriteConfig:u32Count <- $r1
	@DEBUG_VALUE: FMC_WriteConfig:u32Config <- $r0
	@DEBUG_VALUE: FMC_Read:tout <- [DW_OP_constu 1, DW_OP_minus, DW_OP_stack_value] $r4
	.loc	2 441 25                        @ Library/StdDriver/src/fmc.c:441:25
	cbz	r4, .LBB22_24
.Ltmp566:
@ %bb.12:                               @   in Loop: Header=BB22_11 Depth=1
	@DEBUG_VALUE: FMC_Read:tout <- [DW_OP_constu 1, DW_OP_minus, DW_OP_stack_value] $r4
	@DEBUG_VALUE: FMC_Read:u32Addr <- 3145728
	@DEBUG_VALUE: FMC_WriteConfig:u32Count <- $r1
	@DEBUG_VALUE: FMC_WriteConfig:u32Config <- $r0
	@DEBUG_VALUE: FMC_Read:tout <- [DW_OP_constu 1, DW_OP_minus, DW_OP_stack_value] $r4
	.loc	2 441 34 is_stmt 0              @ Library/StdDriver/src/fmc.c:441:34
	ldr	r5, [r2]
	.loc	2 441 5                         @ Library/StdDriver/src/fmc.c:441:5
	lsls	r5, r5, #31
	beq	.LBB22_23
.Ltmp567:
@ %bb.13:                               @   in Loop: Header=BB22_11 Depth=1
	@DEBUG_VALUE: FMC_Read:tout <- [DW_OP_constu 1, DW_OP_minus, DW_OP_stack_value] $r4
	@DEBUG_VALUE: FMC_Read:u32Addr <- 3145728
	@DEBUG_VALUE: FMC_WriteConfig:u32Count <- $r1
	@DEBUG_VALUE: FMC_WriteConfig:u32Config <- $r0
	@DEBUG_VALUE: FMC_Read:tout <- [DW_OP_constu 2, DW_OP_minus, DW_OP_stack_value] $r4
	.loc	2 441 34                        @ Library/StdDriver/src/fmc.c:441:34
	ldr	r5, [r2]
	.loc	2 441 5                         @ Library/StdDriver/src/fmc.c:441:5
	lsls	r5, r5, #31
	beq	.LBB22_21
.Ltmp568:
@ %bb.14:                               @   in Loop: Header=BB22_11 Depth=1
	@DEBUG_VALUE: FMC_Read:tout <- [DW_OP_constu 2, DW_OP_minus, DW_OP_stack_value] $r4
	@DEBUG_VALUE: FMC_Read:u32Addr <- 3145728
	@DEBUG_VALUE: FMC_WriteConfig:u32Count <- $r1
	@DEBUG_VALUE: FMC_WriteConfig:u32Config <- $r0
	@DEBUG_VALUE: FMC_Read:tout <- [DW_OP_constu 2, DW_OP_minus, DW_OP_constu 1, DW_OP_minus, DW_OP_stack_value] $r4
	.loc	2 441 25                        @ Library/StdDriver/src/fmc.c:441:25
	cmp	r4, #2
	beq	.LBB22_24
.Ltmp569:
@ %bb.15:                               @   in Loop: Header=BB22_11 Depth=1
	@DEBUG_VALUE: FMC_Read:tout <- [DW_OP_constu 2, DW_OP_minus, DW_OP_constu 1, DW_OP_minus, DW_OP_stack_value] $r4
	@DEBUG_VALUE: FMC_Read:u32Addr <- 3145728
	@DEBUG_VALUE: FMC_WriteConfig:u32Count <- $r1
	@DEBUG_VALUE: FMC_WriteConfig:u32Config <- $r0
	@DEBUG_VALUE: FMC_Read:tout <- [DW_OP_constu 3, DW_OP_minus, DW_OP_stack_value] $r4
	.loc	2 441 34                        @ Library/StdDriver/src/fmc.c:441:34
	ldr	r5, [r2]
	.loc	2 441 5                         @ Library/StdDriver/src/fmc.c:441:5
	lsls	r5, r5, #31
	beq	.LBB22_22
.Ltmp570:
@ %bb.16:                               @   in Loop: Header=BB22_11 Depth=1
	@DEBUG_VALUE: FMC_Read:tout <- [DW_OP_constu 3, DW_OP_minus, DW_OP_stack_value] $r4
	@DEBUG_VALUE: FMC_Read:u32Addr <- 3145728
	@DEBUG_VALUE: FMC_WriteConfig:u32Count <- $r1
	@DEBUG_VALUE: FMC_WriteConfig:u32Config <- $r0
	@DEBUG_VALUE: FMC_Read:tout <- [DW_OP_constu 3, DW_OP_minus, DW_OP_constu 1, DW_OP_minus, DW_OP_stack_value] $r4
	.loc	2 441 34                        @ Library/StdDriver/src/fmc.c:441:34
	ldr	r5, [r2]
	.loc	2 441 17                        @ Library/StdDriver/src/fmc.c:441:17
	subs	r4, #4
.Ltmp571:
	@DEBUG_VALUE: FMC_Read:tout <- $r4
	.loc	2 441 5                         @ Library/StdDriver/src/fmc.c:441:5
	lsls	r5, r5, #31
	bne	.LBB22_11
.Ltmp572:
@ %bb.17:
	@DEBUG_VALUE: FMC_Read:tout <- $r4
	@DEBUG_VALUE: FMC_Read:u32Addr <- 3145728
	@DEBUG_VALUE: FMC_WriteConfig:u32Count <- $r1
	@DEBUG_VALUE: FMC_WriteConfig:u32Config <- $r0
	.loc	2 442 14 is_stmt 1              @ Library/StdDriver/src/fmc.c:442:14
	adds	r4, #1
.Ltmp573:
	.loc	2 0 14 is_stmt 0                @ Library/StdDriver/src/fmc.c:0:14
	b	.LBB22_23
.Ltmp574:
.LBB22_18:
	@DEBUG_VALUE: FMC_Erase:u32PageAddr <- 3145728
	@DEBUG_VALUE: FMC_WriteConfig:u32Count <- $r1
	@DEBUG_VALUE: FMC_WriteConfig:u32Config <- $r0
	ldr	r0, [r2, #-192]
.Ltmp575:
	@DEBUG_VALUE: FMC_WriteConfig:u32Config <- [DW_OP_LLVM_entry_value 1] $r0
	orr	r0, r0, #64
	str	r0, [r2, #-192]
	b	.LBB22_20
.Ltmp576:
.LBB22_19:
	@DEBUG_VALUE: FMC_Erase:tout <- [DW_OP_constu 3, DW_OP_minus, DW_OP_stack_value] $r4
	@DEBUG_VALUE: FMC_Erase:u32PageAddr <- 3145728
	@DEBUG_VALUE: FMC_WriteConfig:u32Count <- $r1
	@DEBUG_VALUE: FMC_WriteConfig:u32Config <- $r0
	.loc	2 160 14 is_stmt 1              @ Library/StdDriver/src/fmc.c:160:14
	subs	r4, #2
.Ltmp577:
	.loc	2 160 9 is_stmt 0               @ Library/StdDriver/src/fmc.c:160:9
	cmp	r4, #1
	bne	.LBB22_9
.Ltmp578:
.LBB22_20:
	@DEBUG_VALUE: FMC_Erase:u32PageAddr <- 3145728
	@DEBUG_VALUE: FMC_WriteConfig:u32Count <- $r1
	.loc	2 0 9                           @ Library/StdDriver/src/fmc.c:0:9
	mov.w	r0, #-1
	str	r0, [r3]
.Ltmp579:
	.loc	2 1024 1 epilogue_begin is_stmt 1 @ Library/StdDriver/src/fmc.c:1024:1
	pop.w	{r4, r5, r6, r7, r8, r9, r10, r11, pc}
.Ltmp580:
.LBB22_21:
	@DEBUG_VALUE: FMC_Read:tout <- [DW_OP_constu 2, DW_OP_minus, DW_OP_stack_value] $r4
	@DEBUG_VALUE: FMC_Read:u32Addr <- 3145728
	@DEBUG_VALUE: FMC_WriteConfig:u32Count <- $r1
	@DEBUG_VALUE: FMC_WriteConfig:u32Config <- $r0
	.loc	2 442 14                        @ Library/StdDriver/src/fmc.c:442:14
	subs	r4, #1
.Ltmp581:
	.loc	2 0 14 is_stmt 0                @ Library/StdDriver/src/fmc.c:0:14
	b	.LBB22_23
.Ltmp582:
.LBB22_22:
	@DEBUG_VALUE: FMC_Read:tout <- [DW_OP_constu 3, DW_OP_minus, DW_OP_stack_value] $r4
	@DEBUG_VALUE: FMC_Read:u32Addr <- 3145728
	@DEBUG_VALUE: FMC_WriteConfig:u32Count <- $r1
	@DEBUG_VALUE: FMC_WriteConfig:u32Config <- $r0
	.loc	2 442 14                        @ Library/StdDriver/src/fmc.c:442:14
	subs	r4, #2
.Ltmp583:
.LBB22_23:
	@DEBUG_VALUE: FMC_Read:u32Addr <- 3145728
	@DEBUG_VALUE: FMC_WriteConfig:u32Count <- $r1
	@DEBUG_VALUE: FMC_WriteConfig:u32Config <- $r0
	.loc	2 442 9                         @ Library/StdDriver/src/fmc.c:442:9
	cmp	r4, #1
	.loc	2 447 17 is_stmt 1              @ Library/StdDriver/src/fmc.c:447:17
	itt	ne
	ldrne	r4, [r2, #-184]
.Ltmp584:
	.loc	2 988 51                        @ Library/StdDriver/src/fmc.c:988:51
	addsne.w	r4, r4, #1
	bne	.LBB22_46
.Ltmp585:
.LBB22_24:
	@DEBUG_VALUE: FMC_WriteConfig:u32Count <- $r1
	@DEBUG_VALUE: FMC_WriteConfig:u32Config <- $r0
	.loc	2 0 51 is_stmt 0                @ Library/StdDriver/src/fmc.c:0:51
	movs	r4, #4
	movs	r5, #0
.Ltmp586:
	@DEBUG_VALUE: FMC_Read:u32Addr <- 3145732
	movt	r4, #48
.Ltmp587:
	.loc	2 435 22 is_stmt 1              @ Library/StdDriver/src/fmc.c:435:22
	str	r5, [r3]
	.loc	2 436 17                        @ Library/StdDriver/src/fmc.c:436:17
	str	r5, [r2, #-180]
	movs	r5, #1
	.loc	2 437 18                        @ Library/StdDriver/src/fmc.c:437:18
	str	r4, [r2, #-188]
	.loc	2 438 17                        @ Library/StdDriver/src/fmc.c:438:17
	str	r5, [r2, #-176]
	.loc	2 440 12                        @ Library/StdDriver/src/fmc.c:440:12
	ldr.w	r5, [r12]
	umull	r5, r6, r5, lr
	mvn	r5, #1
	and.w	r5, r5, r6, lsr #2
.Ltmp588:
	@DEBUG_VALUE: FMC_Read:tout <- $r5
	.p2align	2
.LBB22_25:                              @ =>This Inner Loop Header: Depth=1
	@DEBUG_VALUE: FMC_Read:tout <- $r5
	@DEBUG_VALUE: FMC_Read:u32Addr <- 3145732
	@DEBUG_VALUE: FMC_WriteConfig:u32Count <- $r1
	@DEBUG_VALUE: FMC_WriteConfig:u32Config <- $r0
	@DEBUG_VALUE: FMC_Read:tout <- [DW_OP_constu 1, DW_OP_minus, DW_OP_stack_value] $r5
	.loc	2 441 25                        @ Library/StdDriver/src/fmc.c:441:25
	cbz	r5, .LBB22_35
.Ltmp589:
@ %bb.26:                               @   in Loop: Header=BB22_25 Depth=1
	@DEBUG_VALUE: FMC_Read:tout <- [DW_OP_constu 1, DW_OP_minus, DW_OP_stack_value] $r5
	@DEBUG_VALUE: FMC_Read:u32Addr <- 3145732
	@DEBUG_VALUE: FMC_WriteConfig:u32Count <- $r1
	@DEBUG_VALUE: FMC_WriteConfig:u32Config <- $r0
	@DEBUG_VALUE: FMC_Read:tout <- [DW_OP_constu 1, DW_OP_minus, DW_OP_stack_value] $r5
	.loc	2 441 34 is_stmt 0              @ Library/StdDriver/src/fmc.c:441:34
	ldr	r6, [r2]
	.loc	2 441 5                         @ Library/StdDriver/src/fmc.c:441:5
	lsls	r6, r6, #31
	beq	.LBB22_34
.Ltmp590:
@ %bb.27:                               @   in Loop: Header=BB22_25 Depth=1
	@DEBUG_VALUE: FMC_Read:tout <- [DW_OP_constu 1, DW_OP_minus, DW_OP_stack_value] $r5
	@DEBUG_VALUE: FMC_Read:u32Addr <- 3145732
	@DEBUG_VALUE: FMC_WriteConfig:u32Count <- $r1
	@DEBUG_VALUE: FMC_WriteConfig:u32Config <- $r0
	@DEBUG_VALUE: FMC_Read:tout <- [DW_OP_constu 2, DW_OP_minus, DW_OP_stack_value] $r5
	.loc	2 441 34                        @ Library/StdDriver/src/fmc.c:441:34
	ldr	r6, [r2]
	.loc	2 441 5                         @ Library/StdDriver/src/fmc.c:441:5
	lsls	r6, r6, #31
	beq	.LBB22_32
.Ltmp591:
@ %bb.28:                               @   in Loop: Header=BB22_25 Depth=1
	@DEBUG_VALUE: FMC_Read:tout <- [DW_OP_constu 2, DW_OP_minus, DW_OP_stack_value] $r5
	@DEBUG_VALUE: FMC_Read:u32Addr <- 3145732
	@DEBUG_VALUE: FMC_WriteConfig:u32Count <- $r1
	@DEBUG_VALUE: FMC_WriteConfig:u32Config <- $r0
	@DEBUG_VALUE: FMC_Read:tout <- [DW_OP_constu 2, DW_OP_minus, DW_OP_constu 1, DW_OP_minus, DW_OP_stack_value] $r5
	.loc	2 441 25                        @ Library/StdDriver/src/fmc.c:441:25
	cmp	r5, #2
	beq	.LBB22_35
.Ltmp592:
@ %bb.29:                               @   in Loop: Header=BB22_25 Depth=1
	@DEBUG_VALUE: FMC_Read:tout <- [DW_OP_constu 2, DW_OP_minus, DW_OP_constu 1, DW_OP_minus, DW_OP_stack_value] $r5
	@DEBUG_VALUE: FMC_Read:u32Addr <- 3145732
	@DEBUG_VALUE: FMC_WriteConfig:u32Count <- $r1
	@DEBUG_VALUE: FMC_WriteConfig:u32Config <- $r0
	@DEBUG_VALUE: FMC_Read:tout <- [DW_OP_constu 3, DW_OP_minus, DW_OP_stack_value] $r5
	.loc	2 441 34                        @ Library/StdDriver/src/fmc.c:441:34
	ldr	r6, [r2]
	.loc	2 441 5                         @ Library/StdDriver/src/fmc.c:441:5
	lsls	r6, r6, #31
	beq	.LBB22_33
.Ltmp593:
@ %bb.30:                               @   in Loop: Header=BB22_25 Depth=1
	@DEBUG_VALUE: FMC_Read:tout <- [DW_OP_constu 3, DW_OP_minus, DW_OP_stack_value] $r5
	@DEBUG_VALUE: FMC_Read:u32Addr <- 3145732
	@DEBUG_VALUE: FMC_WriteConfig:u32Count <- $r1
	@DEBUG_VALUE: FMC_WriteConfig:u32Config <- $r0
	@DEBUG_VALUE: FMC_Read:tout <- [DW_OP_constu 3, DW_OP_minus, DW_OP_constu 1, DW_OP_minus, DW_OP_stack_value] $r5
	.loc	2 441 34                        @ Library/StdDriver/src/fmc.c:441:34
	ldr	r6, [r2]
	.loc	2 441 17                        @ Library/StdDriver/src/fmc.c:441:17
	subs	r5, #4
.Ltmp594:
	@DEBUG_VALUE: FMC_Read:tout <- $r5
	.loc	2 441 5                         @ Library/StdDriver/src/fmc.c:441:5
	lsls	r6, r6, #31
	bne	.LBB22_25
.Ltmp595:
@ %bb.31:
	@DEBUG_VALUE: FMC_Read:tout <- $r5
	@DEBUG_VALUE: FMC_Read:u32Addr <- 3145732
	@DEBUG_VALUE: FMC_WriteConfig:u32Count <- $r1
	@DEBUG_VALUE: FMC_WriteConfig:u32Config <- $r0
	.loc	2 442 14 is_stmt 1              @ Library/StdDriver/src/fmc.c:442:14
	adds	r5, #1
.Ltmp596:
	.loc	2 0 14 is_stmt 0                @ Library/StdDriver/src/fmc.c:0:14
	b	.LBB22_34
.Ltmp597:
.LBB22_32:
	@DEBUG_VALUE: FMC_Read:tout <- [DW_OP_constu 2, DW_OP_minus, DW_OP_stack_value] $r5
	@DEBUG_VALUE: FMC_Read:u32Addr <- 3145732
	@DEBUG_VALUE: FMC_WriteConfig:u32Count <- $r1
	@DEBUG_VALUE: FMC_WriteConfig:u32Config <- $r0
	.loc	2 442 14                        @ Library/StdDriver/src/fmc.c:442:14
	subs	r5, #1
.Ltmp598:
	.loc	2 0 14                          @ Library/StdDriver/src/fmc.c:0:14
	b	.LBB22_34
.Ltmp599:
.LBB22_33:
	@DEBUG_VALUE: FMC_Read:tout <- [DW_OP_constu 3, DW_OP_minus, DW_OP_stack_value] $r5
	@DEBUG_VALUE: FMC_Read:u32Addr <- 3145732
	@DEBUG_VALUE: FMC_WriteConfig:u32Count <- $r1
	@DEBUG_VALUE: FMC_WriteConfig:u32Config <- $r0
	.loc	2 442 14                        @ Library/StdDriver/src/fmc.c:442:14
	subs	r5, #2
.Ltmp600:
.LBB22_34:
	@DEBUG_VALUE: FMC_Read:u32Addr <- 3145732
	@DEBUG_VALUE: FMC_WriteConfig:u32Count <- $r1
	@DEBUG_VALUE: FMC_WriteConfig:u32Config <- $r0
	.loc	2 442 9                         @ Library/StdDriver/src/fmc.c:442:9
	cmp	r5, #1
	.loc	2 447 17 is_stmt 1              @ Library/StdDriver/src/fmc.c:447:17
	itt	ne
	ldrne	r5, [r2, #-184]
.Ltmp601:
	.loc	2 988 98                        @ Library/StdDriver/src/fmc.c:988:98
	addsne.w	r5, r5, #1
	bne	.LBB22_46
.Ltmp602:
.LBB22_35:
	@DEBUG_VALUE: FMC_WriteConfig:u32Count <- $r1
	@DEBUG_VALUE: FMC_WriteConfig:u32Config <- $r0
	.loc	2 0 98 is_stmt 0                @ Library/StdDriver/src/fmc.c:0:98
	movs	r5, #0
.Ltmp603:
	@DEBUG_VALUE: FMC_Read:u32Addr <- 3145736
	.loc	2 437 18 is_stmt 1              @ Library/StdDriver/src/fmc.c:437:18
	adds	r4, #4
	.loc	2 435 22                        @ Library/StdDriver/src/fmc.c:435:22
	str	r5, [r3]
	.loc	2 436 17                        @ Library/StdDriver/src/fmc.c:436:17
	str	r5, [r2, #-180]
	.loc	2 437 18                        @ Library/StdDriver/src/fmc.c:437:18
	str	r4, [r2, #-188]
	movs	r4, #1
	.loc	2 438 17                        @ Library/StdDriver/src/fmc.c:438:17
	str	r4, [r2, #-176]
	.loc	2 440 12                        @ Library/StdDriver/src/fmc.c:440:12
	ldr.w	r4, [r12]
	umull	r4, r5, r4, lr
	mvn	r4, #1
	and.w	r4, r4, r5, lsr #2
.Ltmp604:
	@DEBUG_VALUE: FMC_Read:tout <- $r4
	.p2align	2
.LBB22_36:                              @ =>This Inner Loop Header: Depth=1
	@DEBUG_VALUE: FMC_Read:tout <- $r4
	@DEBUG_VALUE: FMC_Read:u32Addr <- 3145736
	@DEBUG_VALUE: FMC_WriteConfig:u32Count <- $r1
	@DEBUG_VALUE: FMC_WriteConfig:u32Config <- $r0
	@DEBUG_VALUE: FMC_Read:tout <- [DW_OP_constu 1, DW_OP_minus, DW_OP_stack_value] $r4
	.loc	2 441 25                        @ Library/StdDriver/src/fmc.c:441:25
	cbz	r4, .LBB22_45
.Ltmp605:
@ %bb.37:                               @   in Loop: Header=BB22_36 Depth=1
	@DEBUG_VALUE: FMC_Read:tout <- [DW_OP_constu 1, DW_OP_minus, DW_OP_stack_value] $r4
	@DEBUG_VALUE: FMC_Read:u32Addr <- 3145736
	@DEBUG_VALUE: FMC_WriteConfig:u32Count <- $r1
	@DEBUG_VALUE: FMC_WriteConfig:u32Config <- $r0
	@DEBUG_VALUE: FMC_Read:tout <- [DW_OP_constu 1, DW_OP_minus, DW_OP_stack_value] $r4
	.loc	2 441 34 is_stmt 0              @ Library/StdDriver/src/fmc.c:441:34
	ldr	r5, [r2]
	.loc	2 441 5                         @ Library/StdDriver/src/fmc.c:441:5
	lsls	r5, r5, #31
	beq	.LBB22_44
.Ltmp606:
@ %bb.38:                               @   in Loop: Header=BB22_36 Depth=1
	@DEBUG_VALUE: FMC_Read:tout <- [DW_OP_constu 1, DW_OP_minus, DW_OP_stack_value] $r4
	@DEBUG_VALUE: FMC_Read:u32Addr <- 3145736
	@DEBUG_VALUE: FMC_WriteConfig:u32Count <- $r1
	@DEBUG_VALUE: FMC_WriteConfig:u32Config <- $r0
	@DEBUG_VALUE: FMC_Read:tout <- [DW_OP_constu 2, DW_OP_minus, DW_OP_stack_value] $r4
	.loc	2 441 34                        @ Library/StdDriver/src/fmc.c:441:34
	ldr	r5, [r2]
	.loc	2 441 5                         @ Library/StdDriver/src/fmc.c:441:5
	lsls	r5, r5, #31
	beq	.LBB22_43
.Ltmp607:
@ %bb.39:                               @   in Loop: Header=BB22_36 Depth=1
	@DEBUG_VALUE: FMC_Read:tout <- [DW_OP_constu 2, DW_OP_minus, DW_OP_stack_value] $r4
	@DEBUG_VALUE: FMC_Read:u32Addr <- 3145736
	@DEBUG_VALUE: FMC_WriteConfig:u32Count <- $r1
	@DEBUG_VALUE: FMC_WriteConfig:u32Config <- $r0
	@DEBUG_VALUE: FMC_Read:tout <- [DW_OP_constu 2, DW_OP_minus, DW_OP_constu 1, DW_OP_minus, DW_OP_stack_value] $r4
	.loc	2 441 25                        @ Library/StdDriver/src/fmc.c:441:25
	cmp	r4, #2
	beq	.LBB22_45
.Ltmp608:
@ %bb.40:                               @   in Loop: Header=BB22_36 Depth=1
	@DEBUG_VALUE: FMC_Read:tout <- [DW_OP_constu 2, DW_OP_minus, DW_OP_constu 1, DW_OP_minus, DW_OP_stack_value] $r4
	@DEBUG_VALUE: FMC_Read:u32Addr <- 3145736
	@DEBUG_VALUE: FMC_WriteConfig:u32Count <- $r1
	@DEBUG_VALUE: FMC_WriteConfig:u32Config <- $r0
	@DEBUG_VALUE: FMC_Read:tout <- [DW_OP_constu 3, DW_OP_minus, DW_OP_stack_value] $r4
	.loc	2 441 34                        @ Library/StdDriver/src/fmc.c:441:34
	ldr	r5, [r2]
	.loc	2 441 5                         @ Library/StdDriver/src/fmc.c:441:5
	lsls	r5, r5, #31
	beq	.LBB22_47
.Ltmp609:
@ %bb.41:                               @   in Loop: Header=BB22_36 Depth=1
	@DEBUG_VALUE: FMC_Read:tout <- [DW_OP_constu 3, DW_OP_minus, DW_OP_stack_value] $r4
	@DEBUG_VALUE: FMC_Read:u32Addr <- 3145736
	@DEBUG_VALUE: FMC_WriteConfig:u32Count <- $r1
	@DEBUG_VALUE: FMC_WriteConfig:u32Config <- $r0
	@DEBUG_VALUE: FMC_Read:tout <- [DW_OP_constu 3, DW_OP_minus, DW_OP_constu 1, DW_OP_minus, DW_OP_stack_value] $r4
	.loc	2 441 34                        @ Library/StdDriver/src/fmc.c:441:34
	ldr	r5, [r2]
	.loc	2 441 17                        @ Library/StdDriver/src/fmc.c:441:17
	subs	r4, #4
.Ltmp610:
	@DEBUG_VALUE: FMC_Read:tout <- $r4
	.loc	2 441 5                         @ Library/StdDriver/src/fmc.c:441:5
	lsls	r5, r5, #31
	bne	.LBB22_36
.Ltmp611:
@ %bb.42:
	@DEBUG_VALUE: FMC_Read:tout <- $r4
	@DEBUG_VALUE: FMC_Read:u32Addr <- 3145736
	@DEBUG_VALUE: FMC_WriteConfig:u32Count <- $r1
	@DEBUG_VALUE: FMC_WriteConfig:u32Config <- $r0
	.loc	2 442 14 is_stmt 1              @ Library/StdDriver/src/fmc.c:442:14
	adds	r4, #1
.Ltmp612:
	.loc	2 442 9 is_stmt 0               @ Library/StdDriver/src/fmc.c:442:9
	cmp	r4, #1
	beq	.LBB22_45
	b	.LBB22_48
.Ltmp613:
.LBB22_43:
	@DEBUG_VALUE: FMC_Read:tout <- [DW_OP_constu 2, DW_OP_minus, DW_OP_stack_value] $r4
	@DEBUG_VALUE: FMC_Read:u32Addr <- 3145736
	@DEBUG_VALUE: FMC_WriteConfig:u32Count <- $r1
	@DEBUG_VALUE: FMC_WriteConfig:u32Config <- $r0
	.loc	2 442 14                        @ Library/StdDriver/src/fmc.c:442:14
	subs	r4, #1
.Ltmp614:
.LBB22_44:
	@DEBUG_VALUE: FMC_Read:u32Addr <- 3145736
	@DEBUG_VALUE: FMC_WriteConfig:u32Count <- $r1
	@DEBUG_VALUE: FMC_WriteConfig:u32Config <- $r0
	.loc	2 442 9                         @ Library/StdDriver/src/fmc.c:442:9
	cmp	r4, #1
	bne	.LBB22_48
.Ltmp615:
.LBB22_45:
	@DEBUG_VALUE: FMC_Read:u32Addr <- 3145736
	@DEBUG_VALUE: FMC_WriteConfig:u32Count <- $r1
	@DEBUG_VALUE: FMC_WriteConfig:u32Config <- $r0
	.loc	2 0 9                           @ Library/StdDriver/src/fmc.c:0:9
	mov.w	r0, #-1
.Ltmp616:
	@DEBUG_VALUE: FMC_WriteConfig:u32Config <- [DW_OP_LLVM_entry_value 1] $r0
	.loc	2 444 26 is_stmt 1              @ Library/StdDriver/src/fmc.c:444:26
	str	r0, [r3]
.Ltmp617:
.LBB22_46:
	@DEBUG_VALUE: FMC_WriteConfig:u32Count <- $r1
	.loc	2 0 0 is_stmt 0                 @ Library/StdDriver/src/fmc.c:0:0
	ldr	r0, [r2, #-192]
	bic	r0, r0, #16
	str	r0, [r2, #-192]
	mov.w	r0, #-1
	.loc	2 1024 1 epilogue_begin is_stmt 1 @ Library/StdDriver/src/fmc.c:1024:1
	pop.w	{r4, r5, r6, r7, r8, r9, r10, r11, pc}
.Ltmp618:
.LBB22_47:
	@DEBUG_VALUE: FMC_Read:tout <- [DW_OP_constu 3, DW_OP_minus, DW_OP_stack_value] $r4
	@DEBUG_VALUE: FMC_Read:u32Addr <- 3145736
	@DEBUG_VALUE: FMC_WriteConfig:u32Count <- $r1
	@DEBUG_VALUE: FMC_WriteConfig:u32Config <- $r0
	.loc	2 442 14                        @ Library/StdDriver/src/fmc.c:442:14
	subs	r4, #2
.Ltmp619:
	.loc	2 442 9 is_stmt 0               @ Library/StdDriver/src/fmc.c:442:9
	cmp	r4, #1
	beq	.LBB22_45
.Ltmp620:
.LBB22_48:
	@DEBUG_VALUE: FMC_Read:u32Addr <- 3145736
	@DEBUG_VALUE: FMC_WriteConfig:u32Count <- $r1
	@DEBUG_VALUE: FMC_WriteConfig:u32Config <- $r0
	.loc	2 447 17 is_stmt 1              @ Library/StdDriver/src/fmc.c:447:17
	ldr	r4, [r2, #-184]
	movw	r5, #23130
	movt	r5, #65535
.Ltmp621:
	.loc	2 988 9                         @ Library/StdDriver/src/fmc.c:988:9
	cmp	r4, r5
	bne	.LBB22_46
.Ltmp622:
@ %bb.49:
	@DEBUG_VALUE: FMC_WriteConfig:u32Count <- $r1
	@DEBUG_VALUE: FMC_WriteConfig:u32Config <- $r0
	.loc	2 995 9                         @ Library/StdDriver/src/fmc.c:995:9
	ldr	r4, [r3]
.Ltmp623:
	.loc	2 995 9 is_stmt 0               @ Library/StdDriver/src/fmc.c:995:9
	cmp	r4, #0
	bne	.LBB22_46
.Ltmp624:
@ %bb.50:
	@DEBUG_VALUE: FMC_WriteConfig:u32Count <- $r1
	@DEBUG_VALUE: FMC_WriteConfig:u32Config <- $r0
	@DEBUG_VALUE: FMC_WriteConfig:i <- 0
	.loc	2 1001 5 is_stmt 1              @ Library/StdDriver/src/fmc.c:1001:5
	cmp	r1, #0
	beq	.LBB22_80
.Ltmp625:
@ %bb.51:
	@DEBUG_VALUE: FMC_WriteConfig:i <- 0
	@DEBUG_VALUE: FMC_WriteConfig:u32Count <- $r1
	@DEBUG_VALUE: FMC_WriteConfig:u32Config <- $r0
	.loc	2 0 5 is_stmt 0                 @ Library/StdDriver/src/fmc.c:0:5
	mov.w	r9, #0
	mov.w	r4, #3145728
	mov.w	r8, #33
	mov.w	r10, #1
	mvn	r11, #1
	movs	r6, #0
.Ltmp626:
.LBB22_52:                              @ =>This Loop Header: Depth=1
                                        @     Child Loop BB22_53 Depth 2
                                        @     Child Loop BB22_65 Depth 2
	@DEBUG_VALUE: FMC_WriteConfig:u32Count <- $r1
	@DEBUG_VALUE: FMC_WriteConfig:u32Config <- $r0
	@DEBUG_VALUE: FMC_WriteConfig:i <- $r6
	.loc	2 1003 46 is_stmt 1             @ Library/StdDriver/src/fmc.c:1003:46
	ldr.w	r5, [r0, r6, lsl #2]
	@DEBUG_VALUE: FMC_Write:u32Addr <- $r7
.Ltmp627:
	@DEBUG_VALUE: FMC_Write:u32Data <- $r5
	.loc	2 1003 38 is_stmt 0             @ Library/StdDriver/src/fmc.c:1003:38
	add.w	r7, r4, r6, lsl #2
.Ltmp628:
	.loc	2 542 22 is_stmt 1              @ Library/StdDriver/src/fmc.c:542:22
	str.w	r9, [r3]
	.loc	2 543 17                        @ Library/StdDriver/src/fmc.c:543:17
	str	r8, [r2, #-180]
	.loc	2 544 18                        @ Library/StdDriver/src/fmc.c:544:18
	str	r7, [r2, #-188]
	.loc	2 545 17                        @ Library/StdDriver/src/fmc.c:545:17
	str	r5, [r2, #-184]
	.loc	2 546 17                        @ Library/StdDriver/src/fmc.c:546:17
	str	r10, [r2, #-176]
	.loc	2 548 12                        @ Library/StdDriver/src/fmc.c:548:12
	ldr.w	r5, [r12]
.Ltmp629:
	umull	r5, r8, r5, lr
	and.w	r5, r11, r8, lsr #2
.Ltmp630:
	@DEBUG_VALUE: FMC_Write:tout <- $r5
	.loc	2 0 12 is_stmt 0                @ Library/StdDriver/src/fmc.c:0:12
	mov.w	r8, #33
.Ltmp631:
.LBB22_53:                              @   Parent Loop BB22_52 Depth=1
                                        @ =>  This Inner Loop Header: Depth=2
	@DEBUG_VALUE: FMC_Write:tout <- $r5
	@DEBUG_VALUE: FMC_WriteConfig:i <- $r6
	@DEBUG_VALUE: FMC_WriteConfig:u32Count <- $r1
	@DEBUG_VALUE: FMC_WriteConfig:u32Config <- $r0
	@DEBUG_VALUE: FMC_Write:tout <- [DW_OP_constu 1, DW_OP_minus, DW_OP_stack_value] $r5
	.loc	2 549 25 is_stmt 1              @ Library/StdDriver/src/fmc.c:549:25
	cmp	r5, #0
	beq	.LBB22_82
.Ltmp632:
@ %bb.54:                               @   in Loop: Header=BB22_53 Depth=2
	@DEBUG_VALUE: FMC_Write:tout <- [DW_OP_constu 1, DW_OP_minus, DW_OP_stack_value] $r5
	@DEBUG_VALUE: FMC_WriteConfig:i <- $r6
	@DEBUG_VALUE: FMC_WriteConfig:u32Count <- $r1
	@DEBUG_VALUE: FMC_WriteConfig:u32Config <- $r0
	@DEBUG_VALUE: FMC_Write:tout <- [DW_OP_constu 1, DW_OP_minus, DW_OP_stack_value] $r5
	.loc	2 549 34 is_stmt 0              @ Library/StdDriver/src/fmc.c:549:34
	ldr	r4, [r2]
	.loc	2 549 5                         @ Library/StdDriver/src/fmc.c:549:5
	lsls	r4, r4, #31
	beq	.LBB22_62
.Ltmp633:
@ %bb.55:                               @   in Loop: Header=BB22_53 Depth=2
	@DEBUG_VALUE: FMC_Write:tout <- [DW_OP_constu 1, DW_OP_minus, DW_OP_stack_value] $r5
	@DEBUG_VALUE: FMC_WriteConfig:i <- $r6
	@DEBUG_VALUE: FMC_WriteConfig:u32Count <- $r1
	@DEBUG_VALUE: FMC_WriteConfig:u32Config <- $r0
	@DEBUG_VALUE: FMC_Write:tout <- [DW_OP_constu 2, DW_OP_minus, DW_OP_stack_value] $r5
	.loc	2 549 34                        @ Library/StdDriver/src/fmc.c:549:34
	ldr	r4, [r2]
	.loc	2 549 5                         @ Library/StdDriver/src/fmc.c:549:5
	lsls	r4, r4, #31
	beq	.LBB22_60
.Ltmp634:
@ %bb.56:                               @   in Loop: Header=BB22_53 Depth=2
	@DEBUG_VALUE: FMC_Write:tout <- [DW_OP_constu 2, DW_OP_minus, DW_OP_stack_value] $r5
	@DEBUG_VALUE: FMC_WriteConfig:i <- $r6
	@DEBUG_VALUE: FMC_WriteConfig:u32Count <- $r1
	@DEBUG_VALUE: FMC_WriteConfig:u32Config <- $r0
	@DEBUG_VALUE: FMC_Write:tout <- [DW_OP_constu 2, DW_OP_minus, DW_OP_constu 1, DW_OP_minus, DW_OP_stack_value] $r5
	.loc	2 549 25                        @ Library/StdDriver/src/fmc.c:549:25
	cmp	r5, #2
	beq	.LBB22_82
.Ltmp635:
@ %bb.57:                               @   in Loop: Header=BB22_53 Depth=2
	@DEBUG_VALUE: FMC_Write:tout <- [DW_OP_constu 2, DW_OP_minus, DW_OP_constu 1, DW_OP_minus, DW_OP_stack_value] $r5
	@DEBUG_VALUE: FMC_WriteConfig:i <- $r6
	@DEBUG_VALUE: FMC_WriteConfig:u32Count <- $r1
	@DEBUG_VALUE: FMC_WriteConfig:u32Config <- $r0
	@DEBUG_VALUE: FMC_Write:tout <- [DW_OP_constu 3, DW_OP_minus, DW_OP_stack_value] $r5
	.loc	2 549 34                        @ Library/StdDriver/src/fmc.c:549:34
	ldr	r4, [r2]
	.loc	2 549 5                         @ Library/StdDriver/src/fmc.c:549:5
	lsls	r4, r4, #31
	beq	.LBB22_61
.Ltmp636:
@ %bb.58:                               @   in Loop: Header=BB22_53 Depth=2
	@DEBUG_VALUE: FMC_Write:tout <- [DW_OP_constu 3, DW_OP_minus, DW_OP_stack_value] $r5
	@DEBUG_VALUE: FMC_WriteConfig:i <- $r6
	@DEBUG_VALUE: FMC_WriteConfig:u32Count <- $r1
	@DEBUG_VALUE: FMC_WriteConfig:u32Config <- $r0
	@DEBUG_VALUE: FMC_Write:tout <- [DW_OP_constu 3, DW_OP_minus, DW_OP_constu 1, DW_OP_minus, DW_OP_stack_value] $r5
	.loc	2 549 34                        @ Library/StdDriver/src/fmc.c:549:34
	ldr	r4, [r2]
	.loc	2 549 17                        @ Library/StdDriver/src/fmc.c:549:17
	subs	r5, #4
.Ltmp637:
	@DEBUG_VALUE: FMC_Write:tout <- $r5
	.loc	2 549 5                         @ Library/StdDriver/src/fmc.c:549:5
	lsls	r4, r4, #31
	bne	.LBB22_53
.Ltmp638:
@ %bb.59:                               @   in Loop: Header=BB22_52 Depth=1
	@DEBUG_VALUE: FMC_Write:tout <- $r5
	@DEBUG_VALUE: FMC_WriteConfig:i <- $r6
	@DEBUG_VALUE: FMC_WriteConfig:u32Count <- $r1
	@DEBUG_VALUE: FMC_WriteConfig:u32Config <- $r0
	.loc	2 550 14 is_stmt 1              @ Library/StdDriver/src/fmc.c:550:14
	adds	r5, #1
.Ltmp639:
	.loc	2 0 14 is_stmt 0                @ Library/StdDriver/src/fmc.c:0:14
	b	.LBB22_62
.Ltmp640:
.LBB22_60:                              @   in Loop: Header=BB22_52 Depth=1
	@DEBUG_VALUE: FMC_Write:tout <- [DW_OP_constu 2, DW_OP_minus, DW_OP_stack_value] $r5
	@DEBUG_VALUE: FMC_WriteConfig:i <- $r6
	@DEBUG_VALUE: FMC_WriteConfig:u32Count <- $r1
	@DEBUG_VALUE: FMC_WriteConfig:u32Config <- $r0
	.loc	2 550 14                        @ Library/StdDriver/src/fmc.c:550:14
	subs	r5, #1
.Ltmp641:
	.loc	2 0 14                          @ Library/StdDriver/src/fmc.c:0:14
	b	.LBB22_62
.Ltmp642:
.LBB22_61:                              @   in Loop: Header=BB22_52 Depth=1
	@DEBUG_VALUE: FMC_Write:tout <- [DW_OP_constu 3, DW_OP_minus, DW_OP_stack_value] $r5
	@DEBUG_VALUE: FMC_WriteConfig:i <- $r6
	@DEBUG_VALUE: FMC_WriteConfig:u32Count <- $r1
	@DEBUG_VALUE: FMC_WriteConfig:u32Config <- $r0
	.loc	2 550 14                        @ Library/StdDriver/src/fmc.c:550:14
	subs	r5, #2
.Ltmp643:
.LBB22_62:                              @   in Loop: Header=BB22_52 Depth=1
	@DEBUG_VALUE: FMC_WriteConfig:i <- $r6
	@DEBUG_VALUE: FMC_WriteConfig:u32Count <- $r1
	@DEBUG_VALUE: FMC_WriteConfig:u32Config <- $r0
	.loc	2 550 9                         @ Library/StdDriver/src/fmc.c:550:9
	cmp	r5, #1
	beq	.LBB22_82
.Ltmp644:
@ %bb.63:                               @   in Loop: Header=BB22_52 Depth=1
	@DEBUG_VALUE: FMC_WriteConfig:i <- $r6
	@DEBUG_VALUE: FMC_WriteConfig:u32Count <- $r1
	@DEBUG_VALUE: FMC_WriteConfig:u32Config <- $r0
	.loc	2 556 14 is_stmt 1              @ Library/StdDriver/src/fmc.c:556:14
	ldr	r4, [r2, #-128]
.Ltmp645:
	.loc	2 556 9 is_stmt 0               @ Library/StdDriver/src/fmc.c:556:9
	lsls	r4, r4, #25
	bmi	.LBB22_81
.Ltmp646:
@ %bb.64:                               @   in Loop: Header=BB22_52 Depth=1
	@DEBUG_VALUE: FMC_WriteConfig:i <- $r6
	@DEBUG_VALUE: FMC_WriteConfig:u32Count <- $r1
	@DEBUG_VALUE: FMC_WriteConfig:u32Config <- $r0
	@DEBUG_VALUE: FMC_Read:u32Addr <- $r7
	.loc	2 435 22 is_stmt 1              @ Library/StdDriver/src/fmc.c:435:22
	str.w	r9, [r3]
	.loc	2 436 17                        @ Library/StdDriver/src/fmc.c:436:17
	str	r9, [r2, #-180]
	.loc	2 437 18                        @ Library/StdDriver/src/fmc.c:437:18
	str	r7, [r2, #-188]
	.loc	2 438 17                        @ Library/StdDriver/src/fmc.c:438:17
	str	r10, [r2, #-176]
	.loc	2 440 12                        @ Library/StdDriver/src/fmc.c:440:12
	ldr.w	r4, [r12]
	umull	r4, r5, r4, lr
	and.w	r5, r11, r5, lsr #2
.Ltmp647:
	@DEBUG_VALUE: FMC_Read:tout <- $r5
.LBB22_65:                              @   Parent Loop BB22_52 Depth=1
                                        @ =>  This Inner Loop Header: Depth=2
	@DEBUG_VALUE: FMC_Read:tout <- $r5
	@DEBUG_VALUE: FMC_Read:u32Addr <- $r7
	@DEBUG_VALUE: FMC_WriteConfig:i <- $r6
	@DEBUG_VALUE: FMC_WriteConfig:u32Count <- $r1
	@DEBUG_VALUE: FMC_WriteConfig:u32Config <- $r0
	@DEBUG_VALUE: FMC_Read:tout <- [DW_OP_constu 1, DW_OP_minus, DW_OP_stack_value] $r5
	.loc	2 441 25                        @ Library/StdDriver/src/fmc.c:441:25
	cbz	r5, .LBB22_75
.Ltmp648:
@ %bb.66:                               @   in Loop: Header=BB22_65 Depth=2
	@DEBUG_VALUE: FMC_Read:tout <- [DW_OP_constu 1, DW_OP_minus, DW_OP_stack_value] $r5
	@DEBUG_VALUE: FMC_Read:u32Addr <- $r7
	@DEBUG_VALUE: FMC_WriteConfig:i <- $r6
	@DEBUG_VALUE: FMC_WriteConfig:u32Count <- $r1
	@DEBUG_VALUE: FMC_WriteConfig:u32Config <- $r0
	@DEBUG_VALUE: FMC_Read:tout <- [DW_OP_constu 1, DW_OP_minus, DW_OP_stack_value] $r5
	.loc	2 441 34 is_stmt 0              @ Library/StdDriver/src/fmc.c:441:34
	ldr	r4, [r2]
	.loc	2 441 5                         @ Library/StdDriver/src/fmc.c:441:5
	lsls	r4, r4, #31
	beq	.LBB22_74
.Ltmp649:
@ %bb.67:                               @   in Loop: Header=BB22_65 Depth=2
	@DEBUG_VALUE: FMC_Read:tout <- [DW_OP_constu 1, DW_OP_minus, DW_OP_stack_value] $r5
	@DEBUG_VALUE: FMC_Read:u32Addr <- $r7
	@DEBUG_VALUE: FMC_WriteConfig:i <- $r6
	@DEBUG_VALUE: FMC_WriteConfig:u32Count <- $r1
	@DEBUG_VALUE: FMC_WriteConfig:u32Config <- $r0
	@DEBUG_VALUE: FMC_Read:tout <- [DW_OP_constu 2, DW_OP_minus, DW_OP_stack_value] $r5
	.loc	2 441 34                        @ Library/StdDriver/src/fmc.c:441:34
	ldr	r4, [r2]
	.loc	2 441 5                         @ Library/StdDriver/src/fmc.c:441:5
	lsls	r4, r4, #31
	beq	.LBB22_72
.Ltmp650:
@ %bb.68:                               @   in Loop: Header=BB22_65 Depth=2
	@DEBUG_VALUE: FMC_Read:tout <- [DW_OP_constu 2, DW_OP_minus, DW_OP_stack_value] $r5
	@DEBUG_VALUE: FMC_Read:u32Addr <- $r7
	@DEBUG_VALUE: FMC_WriteConfig:i <- $r6
	@DEBUG_VALUE: FMC_WriteConfig:u32Count <- $r1
	@DEBUG_VALUE: FMC_WriteConfig:u32Config <- $r0
	@DEBUG_VALUE: FMC_Read:tout <- [DW_OP_constu 2, DW_OP_minus, DW_OP_constu 1, DW_OP_minus, DW_OP_stack_value] $r5
	.loc	2 441 25                        @ Library/StdDriver/src/fmc.c:441:25
	cmp	r5, #2
	beq	.LBB22_75
.Ltmp651:
@ %bb.69:                               @   in Loop: Header=BB22_65 Depth=2
	@DEBUG_VALUE: FMC_Read:tout <- [DW_OP_constu 2, DW_OP_minus, DW_OP_constu 1, DW_OP_minus, DW_OP_stack_value] $r5
	@DEBUG_VALUE: FMC_Read:u32Addr <- $r7
	@DEBUG_VALUE: FMC_WriteConfig:i <- $r6
	@DEBUG_VALUE: FMC_WriteConfig:u32Count <- $r1
	@DEBUG_VALUE: FMC_WriteConfig:u32Config <- $r0
	@DEBUG_VALUE: FMC_Read:tout <- [DW_OP_constu 3, DW_OP_minus, DW_OP_stack_value] $r5
	.loc	2 441 34                        @ Library/StdDriver/src/fmc.c:441:34
	ldr	r4, [r2]
	.loc	2 441 5                         @ Library/StdDriver/src/fmc.c:441:5
	lsls	r4, r4, #31
	beq	.LBB22_73
.Ltmp652:
@ %bb.70:                               @   in Loop: Header=BB22_65 Depth=2
	@DEBUG_VALUE: FMC_Read:tout <- [DW_OP_constu 3, DW_OP_minus, DW_OP_stack_value] $r5
	@DEBUG_VALUE: FMC_Read:u32Addr <- $r7
	@DEBUG_VALUE: FMC_WriteConfig:i <- $r6
	@DEBUG_VALUE: FMC_WriteConfig:u32Count <- $r1
	@DEBUG_VALUE: FMC_WriteConfig:u32Config <- $r0
	@DEBUG_VALUE: FMC_Read:tout <- [DW_OP_constu 3, DW_OP_minus, DW_OP_constu 1, DW_OP_minus, DW_OP_stack_value] $r5
	.loc	2 441 34                        @ Library/StdDriver/src/fmc.c:441:34
	ldr	r4, [r2]
	.loc	2 441 17                        @ Library/StdDriver/src/fmc.c:441:17
	subs	r5, #4
.Ltmp653:
	@DEBUG_VALUE: FMC_Read:tout <- $r5
	.loc	2 441 5                         @ Library/StdDriver/src/fmc.c:441:5
	lsls	r4, r4, #31
	bne	.LBB22_65
.Ltmp654:
@ %bb.71:                               @   in Loop: Header=BB22_52 Depth=1
	@DEBUG_VALUE: FMC_Read:tout <- $r5
	@DEBUG_VALUE: FMC_Read:u32Addr <- $r7
	@DEBUG_VALUE: FMC_WriteConfig:i <- $r6
	@DEBUG_VALUE: FMC_WriteConfig:u32Count <- $r1
	@DEBUG_VALUE: FMC_WriteConfig:u32Config <- $r0
	.loc	2 442 14 is_stmt 1              @ Library/StdDriver/src/fmc.c:442:14
	adds	r5, #1
.Ltmp655:
	.loc	2 0 14 is_stmt 0                @ Library/StdDriver/src/fmc.c:0:14
	b	.LBB22_74
.Ltmp656:
.LBB22_72:                              @   in Loop: Header=BB22_52 Depth=1
	@DEBUG_VALUE: FMC_Read:tout <- [DW_OP_constu 2, DW_OP_minus, DW_OP_stack_value] $r5
	@DEBUG_VALUE: FMC_Read:u32Addr <- $r7
	@DEBUG_VALUE: FMC_WriteConfig:i <- $r6
	@DEBUG_VALUE: FMC_WriteConfig:u32Count <- $r1
	@DEBUG_VALUE: FMC_WriteConfig:u32Config <- $r0
	.loc	2 442 14                        @ Library/StdDriver/src/fmc.c:442:14
	subs	r5, #1
.Ltmp657:
	.loc	2 0 14                          @ Library/StdDriver/src/fmc.c:0:14
	b	.LBB22_74
.Ltmp658:
.LBB22_73:                              @   in Loop: Header=BB22_52 Depth=1
	@DEBUG_VALUE: FMC_Read:tout <- [DW_OP_constu 3, DW_OP_minus, DW_OP_stack_value] $r5
	@DEBUG_VALUE: FMC_Read:u32Addr <- $r7
	@DEBUG_VALUE: FMC_WriteConfig:i <- $r6
	@DEBUG_VALUE: FMC_WriteConfig:u32Count <- $r1
	@DEBUG_VALUE: FMC_WriteConfig:u32Config <- $r0
	.loc	2 442 14                        @ Library/StdDriver/src/fmc.c:442:14
	subs	r5, #2
.Ltmp659:
.LBB22_74:                              @   in Loop: Header=BB22_52 Depth=1
	@DEBUG_VALUE: FMC_Read:u32Addr <- $r7
	@DEBUG_VALUE: FMC_WriteConfig:i <- $r6
	@DEBUG_VALUE: FMC_WriteConfig:u32Count <- $r1
	@DEBUG_VALUE: FMC_WriteConfig:u32Config <- $r0
	.loc	2 442 9                         @ Library/StdDriver/src/fmc.c:442:9
	cmp	r5, #1
	bne	.LBB22_76
.Ltmp660:
.LBB22_75:                              @   in Loop: Header=BB22_52 Depth=1
	@DEBUG_VALUE: FMC_Read:u32Addr <- $r7
	@DEBUG_VALUE: FMC_WriteConfig:i <- $r6
	@DEBUG_VALUE: FMC_WriteConfig:u32Count <- $r1
	@DEBUG_VALUE: FMC_WriteConfig:u32Config <- $r0
	.loc	2 0 9                           @ Library/StdDriver/src/fmc.c:0:9
	mov.w	r5, #-1
.Ltmp661:
	.loc	2 444 26 is_stmt 1              @ Library/StdDriver/src/fmc.c:444:26
	str	r5, [r3]
	b	.LBB22_77
.Ltmp662:
.LBB22_76:                              @   in Loop: Header=BB22_52 Depth=1
	@DEBUG_VALUE: FMC_Read:u32Addr <- $r7
	@DEBUG_VALUE: FMC_WriteConfig:i <- $r6
	@DEBUG_VALUE: FMC_WriteConfig:u32Count <- $r1
	@DEBUG_VALUE: FMC_WriteConfig:u32Config <- $r0
	.loc	2 447 17                        @ Library/StdDriver/src/fmc.c:447:17
	ldr	r5, [r2, #-184]
.Ltmp663:
.LBB22_77:                              @   in Loop: Header=BB22_52 Depth=1
	@DEBUG_VALUE: FMC_WriteConfig:i <- $r6
	@DEBUG_VALUE: FMC_WriteConfig:u32Count <- $r1
	@DEBUG_VALUE: FMC_WriteConfig:u32Config <- $r0
	.loc	2 1009 48                       @ Library/StdDriver/src/fmc.c:1009:48
	ldr.w	r4, [r0, r6, lsl #2]
.Ltmp664:
	.loc	2 1009 13 is_stmt 0             @ Library/StdDriver/src/fmc.c:1009:13
	cmp	r5, r4
	bne.w	.LBB22_46
.Ltmp665:
@ %bb.78:                               @   in Loop: Header=BB22_52 Depth=1
	@DEBUG_VALUE: FMC_WriteConfig:i <- $r6
	@DEBUG_VALUE: FMC_WriteConfig:u32Count <- $r1
	@DEBUG_VALUE: FMC_WriteConfig:u32Config <- $r0
	.loc	2 1015 13 is_stmt 1             @ Library/StdDriver/src/fmc.c:1015:13
	ldr	r4, [r3]
.Ltmp666:
	@DEBUG_VALUE: FMC_WriteConfig:i <- [DW_OP_plus_uconst 1, DW_OP_stack_value] $r6
	.loc	2 1015 13 is_stmt 0             @ Library/StdDriver/src/fmc.c:1015:13
	cmp	r4, #0
	bne.w	.LBB22_46
.Ltmp667:
@ %bb.79:                               @   in Loop: Header=BB22_52 Depth=1
	@DEBUG_VALUE: FMC_WriteConfig:i <- [DW_OP_plus_uconst 1, DW_OP_stack_value] $r6
	@DEBUG_VALUE: FMC_WriteConfig:u32Count <- $r1
	@DEBUG_VALUE: FMC_WriteConfig:u32Config <- $r0
	.loc	2 1001 32 is_stmt 1             @ Library/StdDriver/src/fmc.c:1001:32
	adds	r6, #1
.Ltmp668:
	@DEBUG_VALUE: FMC_WriteConfig:i <- $r6
	.loc	2 1001 5 is_stmt 0              @ Library/StdDriver/src/fmc.c:1001:5
	cmp	r6, r1
	mov.w	r4, #3145728
	bne.w	.LBB22_52
.Ltmp669:
.LBB22_80:
	@DEBUG_VALUE: FMC_WriteConfig:u32Count <- $r1
	@DEBUG_VALUE: FMC_WriteConfig:u32Config <- $r0
	.loc	2 1022 5 is_stmt 1              @ Library/StdDriver/src/fmc.c:1022:5
	ldr	r0, [r2, #-192]
.Ltmp670:
	@DEBUG_VALUE: FMC_WriteConfig:u32Config <- [DW_OP_LLVM_entry_value 1] $r0
	bic	r0, r0, #16
	str	r0, [r2, #-192]
	movs	r0, #0
	.loc	2 1024 1 epilogue_begin         @ Library/StdDriver/src/fmc.c:1024:1
	pop.w	{r4, r5, r6, r7, r8, r9, r10, r11, pc}
.Ltmp671:
.LBB22_81:
	@DEBUG_VALUE: FMC_WriteConfig:i <- $r6
	@DEBUG_VALUE: FMC_WriteConfig:u32Count <- $r1
	@DEBUG_VALUE: FMC_WriteConfig:u32Config <- $r0
	.loc	2 558 21                        @ Library/StdDriver/src/fmc.c:558:21
	ldr	r0, [r2, #-128]
.Ltmp672:
	@DEBUG_VALUE: FMC_WriteConfig:u32Config <- [DW_OP_LLVM_entry_value 1] $r0
	orr	r0, r0, #64
	str	r0, [r2, #-128]
.Ltmp673:
.LBB22_82:
	@DEBUG_VALUE: FMC_WriteConfig:i <- $r6
	@DEBUG_VALUE: FMC_WriteConfig:u32Count <- $r1
	.loc	2 0 21 is_stmt 0                @ Library/StdDriver/src/fmc.c:0:21
	mov.w	r0, #-1
	str	r0, [r3]
.Ltmp674:
	.loc	2 1005 13 is_stmt 1             @ Library/StdDriver/src/fmc.c:1005:13
	ldr	r1, [r2, #-192]
.Ltmp675:
	@DEBUG_VALUE: FMC_WriteConfig:u32Count <- [DW_OP_LLVM_entry_value 1] $r1
	bic	r1, r1, #16
	str	r1, [r2, #-192]
.Ltmp676:
	.loc	2 1024 1 epilogue_begin         @ Library/StdDriver/src/fmc.c:1024:1
	pop.w	{r4, r5, r6, r7, r8, r9, r10, r11, pc}
.Ltmp677:
.Lfunc_end22:
	.size	FMC_WriteConfig, .Lfunc_end22-FMC_WriteConfig
	.cfi_endproc
	.cantunwind
	.fnend
                                        @ -- End function
	.section	.text.FMC_GetChkSum,"ax",%progbits
	.hidden	FMC_GetChkSum                   @ -- Begin function FMC_GetChkSum
	.globl	FMC_GetChkSum
	.p2align	2
	.type	FMC_GetChkSum,%function
	.code	16                              @ @FMC_GetChkSum
	.thumb_func
FMC_GetChkSum:
.Lfunc_begin23:
	.loc	2 1040 0                        @ Library/StdDriver/src/fmc.c:1040:0
	.fnstart
	.cfi_startproc
@ %bb.0:
	@DEBUG_VALUE: FMC_GetChkSum:u32addr <- $r0
	@DEBUG_VALUE: FMC_GetChkSum:u32count <- $r1
	.save	{r7, lr}
	push	{r7, lr}
	.cfi_def_cfa_offset 8
	.cfi_offset lr, -4
	.cfi_offset r7, -8
.Ltmp678:
	.loc	2 1043 22 prologue_end          @ Library/StdDriver/src/fmc.c:1043:22
	movw	lr, :lower16:g_FMC_i32ErrCode
.Ltmp679:
	.loc	2 1045 28                       @ Library/StdDriver/src/fmc.c:1045:28
	orr.w	r2, r1, r0
.Ltmp680:
	.loc	2 1043 22                       @ Library/StdDriver/src/fmc.c:1043:22
	movt	lr, :upper16:g_FMC_i32ErrCode
	movs	r3, #0
.Ltmp681:
	.loc	2 1045 28                       @ Library/StdDriver/src/fmc.c:1045:28
	lsls	r2, r2, #20
.Ltmp682:
	.loc	2 1043 22                       @ Library/StdDriver/src/fmc.c:1043:22
	str.w	r3, [lr]
.Ltmp683:
	.loc	2 1045 28                       @ Library/StdDriver/src/fmc.c:1045:28
	beq	.LBB23_2
.Ltmp684:
@ %bb.1:
	@DEBUG_VALUE: FMC_GetChkSum:u32count <- $r1
	@DEBUG_VALUE: FMC_GetChkSum:u32addr <- $r0
	.loc	2 0 28 is_stmt 0                @ Library/StdDriver/src/fmc.c:0:28
	mvn	r0, #1
.Ltmp685:
	@DEBUG_VALUE: FMC_GetChkSum:u32addr <- [DW_OP_LLVM_entry_value 1] $r0
	.loc	2 1047 26 is_stmt 1             @ Library/StdDriver/src/fmc.c:1047:26
	str.w	r0, [lr]
	mov.w	r0, #-1
.Ltmp686:
	.loc	2 1077 1 epilogue_begin         @ Library/StdDriver/src/fmc.c:1077:1
	pop	{r7, pc}
.Ltmp687:
.LBB23_2:
	@DEBUG_VALUE: FMC_GetChkSum:u32count <- $r1
	@DEBUG_VALUE: FMC_GetChkSum:u32addr <- $r0
	.loc	2 0 1 is_stmt 0                 @ Library/StdDriver/src/fmc.c:0:1
	movw	r3, #49344
	movt	r3, #16384
	movs	r2, #45
	.loc	2 1051 18 is_stmt 1             @ Library/StdDriver/src/fmc.c:1051:18
	str	r2, [r3, #-180]
	.loc	2 1052 18                       @ Library/StdDriver/src/fmc.c:1052:18
	str	r0, [r3, #-188]
	.loc	2 1053 18                       @ Library/StdDriver/src/fmc.c:1053:18
	str	r1, [r3, #-184]
	movs	r1, #1
.Ltmp688:
	@DEBUG_VALUE: FMC_GetChkSum:u32count <- [DW_OP_LLVM_entry_value 1] $r1
	.loc	2 1056 12                       @ Library/StdDriver/src/fmc.c:1056:12
	movw	r12, :lower16:SystemCoreClock
	.loc	2 1054 18                       @ Library/StdDriver/src/fmc.c:1054:18
	str	r1, [r3, #-176]
	.loc	2 1056 12                       @ Library/StdDriver/src/fmc.c:1056:12
	movt	r12, :upper16:SystemCoreClock
	ldr.w	r1, [r12]
	lsls	r1, r1, #1
.Ltmp689:
	@DEBUG_VALUE: FMC_GetChkSum:tout <- $r1
	.p2align	2
.LBB23_3:                               @ =>This Inner Loop Header: Depth=1
	@DEBUG_VALUE: FMC_GetChkSum:tout <- $r1
	@DEBUG_VALUE: FMC_GetChkSum:u32count <- [DW_OP_LLVM_entry_value 1] $r1
	@DEBUG_VALUE: FMC_GetChkSum:u32addr <- $r0
	@DEBUG_VALUE: FMC_GetChkSum:tout <- [DW_OP_constu 1, DW_OP_minus, DW_OP_stack_value] $r1
	.loc	2 1057 25                       @ Library/StdDriver/src/fmc.c:1057:25
	cmp	r1, #1
	blt	.LBB23_23
.Ltmp690:
@ %bb.4:                                @   in Loop: Header=BB23_3 Depth=1
	@DEBUG_VALUE: FMC_GetChkSum:tout <- [DW_OP_constu 1, DW_OP_minus, DW_OP_stack_value] $r1
	@DEBUG_VALUE: FMC_GetChkSum:u32count <- [DW_OP_LLVM_entry_value 1] $r1
	@DEBUG_VALUE: FMC_GetChkSum:u32addr <- $r0
	@DEBUG_VALUE: FMC_GetChkSum:tout <- [DW_OP_constu 1, DW_OP_minus, DW_OP_stack_value] $r1
	.loc	2 1057 34 is_stmt 0             @ Library/StdDriver/src/fmc.c:1057:34
	ldr	r2, [r3]
	.loc	2 1057 5                        @ Library/StdDriver/src/fmc.c:1057:5
	lsls	r2, r2, #31
	beq	.LBB23_11
.Ltmp691:
@ %bb.5:                                @   in Loop: Header=BB23_3 Depth=1
	@DEBUG_VALUE: FMC_GetChkSum:tout <- [DW_OP_constu 1, DW_OP_minus, DW_OP_stack_value] $r1
	@DEBUG_VALUE: FMC_GetChkSum:u32count <- [DW_OP_LLVM_entry_value 1] $r1
	@DEBUG_VALUE: FMC_GetChkSum:u32addr <- $r0
	@DEBUG_VALUE: FMC_GetChkSum:tout <- [DW_OP_constu 2, DW_OP_minus, DW_OP_stack_value] $r1
	.loc	2 1057 34                       @ Library/StdDriver/src/fmc.c:1057:34
	ldr	r2, [r3]
	.loc	2 1057 5                        @ Library/StdDriver/src/fmc.c:1057:5
	lsls	r2, r2, #31
	beq	.LBB23_10
.Ltmp692:
@ %bb.6:                                @   in Loop: Header=BB23_3 Depth=1
	@DEBUG_VALUE: FMC_GetChkSum:tout <- [DW_OP_constu 2, DW_OP_minus, DW_OP_stack_value] $r1
	@DEBUG_VALUE: FMC_GetChkSum:u32count <- [DW_OP_LLVM_entry_value 1] $r1
	@DEBUG_VALUE: FMC_GetChkSum:u32addr <- $r0
	@DEBUG_VALUE: FMC_GetChkSum:tout <- [DW_OP_constu 2, DW_OP_minus, DW_OP_constu 1, DW_OP_minus, DW_OP_stack_value] $r1
	.loc	2 1057 25                       @ Library/StdDriver/src/fmc.c:1057:25
	cmp	r1, #3
	blt	.LBB23_23
.Ltmp693:
@ %bb.7:                                @   in Loop: Header=BB23_3 Depth=1
	@DEBUG_VALUE: FMC_GetChkSum:tout <- [DW_OP_constu 2, DW_OP_minus, DW_OP_constu 1, DW_OP_minus, DW_OP_stack_value] $r1
	@DEBUG_VALUE: FMC_GetChkSum:u32count <- [DW_OP_LLVM_entry_value 1] $r1
	@DEBUG_VALUE: FMC_GetChkSum:u32addr <- $r0
	@DEBUG_VALUE: FMC_GetChkSum:tout <- [DW_OP_constu 3, DW_OP_minus, DW_OP_stack_value] $r1
	.loc	2 1057 34                       @ Library/StdDriver/src/fmc.c:1057:34
	ldr	r2, [r3]
	.loc	2 1057 5                        @ Library/StdDriver/src/fmc.c:1057:5
	lsls	r2, r2, #31
	beq	.LBB23_20
.Ltmp694:
@ %bb.8:                                @   in Loop: Header=BB23_3 Depth=1
	@DEBUG_VALUE: FMC_GetChkSum:tout <- [DW_OP_constu 3, DW_OP_minus, DW_OP_stack_value] $r1
	@DEBUG_VALUE: FMC_GetChkSum:u32count <- [DW_OP_LLVM_entry_value 1] $r1
	@DEBUG_VALUE: FMC_GetChkSum:u32addr <- $r0
	@DEBUG_VALUE: FMC_GetChkSum:tout <- [DW_OP_constu 3, DW_OP_minus, DW_OP_constu 1, DW_OP_minus, DW_OP_stack_value] $r1
	.loc	2 1057 34                       @ Library/StdDriver/src/fmc.c:1057:34
	ldr	r2, [r3]
	.loc	2 1057 17                       @ Library/StdDriver/src/fmc.c:1057:17
	subs	r1, #4
.Ltmp695:
	@DEBUG_VALUE: FMC_GetChkSum:tout <- $r1
	.loc	2 1057 5                        @ Library/StdDriver/src/fmc.c:1057:5
	lsls	r2, r2, #31
	bne	.LBB23_3
.Ltmp696:
@ %bb.9:
	@DEBUG_VALUE: FMC_GetChkSum:tout <- $r1
	@DEBUG_VALUE: FMC_GetChkSum:u32count <- [DW_OP_LLVM_entry_value 1] $r1
	@DEBUG_VALUE: FMC_GetChkSum:u32addr <- $r0
	.loc	2 1058 14 is_stmt 1             @ Library/StdDriver/src/fmc.c:1058:14
	adds	r1, #1
.Ltmp697:
	.loc	2 1058 9 is_stmt 0              @ Library/StdDriver/src/fmc.c:1058:9
	cmp	r1, #1
	bne	.LBB23_12
	b	.LBB23_23
.Ltmp698:
.LBB23_10:
	@DEBUG_VALUE: FMC_GetChkSum:tout <- [DW_OP_constu 2, DW_OP_minus, DW_OP_stack_value] $r1
	@DEBUG_VALUE: FMC_GetChkSum:u32count <- [DW_OP_LLVM_entry_value 1] $r1
	@DEBUG_VALUE: FMC_GetChkSum:u32addr <- $r0
	.loc	2 1058 14                       @ Library/StdDriver/src/fmc.c:1058:14
	subs	r1, #1
.Ltmp699:
.LBB23_11:
	@DEBUG_VALUE: FMC_GetChkSum:u32count <- [DW_OP_LLVM_entry_value 1] $r1
	@DEBUG_VALUE: FMC_GetChkSum:u32addr <- $r0
	.loc	2 1058 9                        @ Library/StdDriver/src/fmc.c:1058:9
	cmp	r1, #1
	beq	.LBB23_23
.Ltmp700:
.LBB23_12:
	@DEBUG_VALUE: FMC_GetChkSum:u32count <- [DW_OP_LLVM_entry_value 1] $r1
	@DEBUG_VALUE: FMC_GetChkSum:u32addr <- $r0
	.loc	2 0 9                           @ Library/StdDriver/src/fmc.c:0:9
	movs	r1, #13
	.loc	2 1064 17 is_stmt 1             @ Library/StdDriver/src/fmc.c:1064:17
	str	r1, [r3, #-180]
	.loc	2 1065 21                       @ Library/StdDriver/src/fmc.c:1065:21
	str	r0, [r3, #-188]
	movs	r0, #1
.Ltmp701:
	@DEBUG_VALUE: FMC_GetChkSum:u32addr <- [DW_OP_LLVM_entry_value 1] $r0
	.loc	2 1066 17                       @ Library/StdDriver/src/fmc.c:1066:17
	str	r0, [r3, #-176]
	.loc	2 1068 12                       @ Library/StdDriver/src/fmc.c:1068:12
	ldr.w	r0, [r12]
	lsls	r0, r0, #1
.Ltmp702:
	@DEBUG_VALUE: FMC_GetChkSum:tout <- $r0
	.p2align	2
.LBB23_13:                              @ =>This Inner Loop Header: Depth=1
	@DEBUG_VALUE: FMC_GetChkSum:tout <- $r0
	@DEBUG_VALUE: FMC_GetChkSum:u32count <- [DW_OP_LLVM_entry_value 1] $r1
	@DEBUG_VALUE: FMC_GetChkSum:u32addr <- [DW_OP_LLVM_entry_value 1] $r0
	@DEBUG_VALUE: FMC_GetChkSum:tout <- [DW_OP_constu 1, DW_OP_minus, DW_OP_stack_value] $r0
	.loc	2 1069 25                       @ Library/StdDriver/src/fmc.c:1069:25
	cmp	r0, #1
	blt	.LBB23_23
.Ltmp703:
@ %bb.14:                               @   in Loop: Header=BB23_13 Depth=1
	@DEBUG_VALUE: FMC_GetChkSum:tout <- [DW_OP_constu 1, DW_OP_minus, DW_OP_stack_value] $r0
	@DEBUG_VALUE: FMC_GetChkSum:u32count <- [DW_OP_LLVM_entry_value 1] $r1
	@DEBUG_VALUE: FMC_GetChkSum:u32addr <- [DW_OP_LLVM_entry_value 1] $r0
	@DEBUG_VALUE: FMC_GetChkSum:tout <- [DW_OP_constu 1, DW_OP_minus, DW_OP_stack_value] $r0
	.loc	2 1069 34 is_stmt 0             @ Library/StdDriver/src/fmc.c:1069:34
	ldr	r1, [r3]
	.loc	2 1069 5                        @ Library/StdDriver/src/fmc.c:1069:5
	lsls	r1, r1, #31
	beq	.LBB23_22
.Ltmp704:
@ %bb.15:                               @   in Loop: Header=BB23_13 Depth=1
	@DEBUG_VALUE: FMC_GetChkSum:tout <- [DW_OP_constu 1, DW_OP_minus, DW_OP_stack_value] $r0
