	.text
	.syntax unified
	.eabi_attribute	67, "2.09"	@ Tag_conformance
	.cpu	cortex-m4
	.eabi_attribute	6, 13	@ Tag_CPU_arch
	.eabi_attribute	7, 77	@ Tag_CPU_arch_profile
	.eabi_attribute	8, 0	@ Tag_ARM_ISA_use
	.eabi_attribute	9, 2	@ Tag_THUMB_ISA_use
	.fpu	fpv4-sp-d16
	.eabi_attribute	27, 1	@ Tag_ABI_HardFP_use
	.eabi_attribute	36, 1	@ Tag_FP_HP_extension
	.eabi_attribute	34, 1	@ Tag_CPU_unaligned_access
	.eabi_attribute	17, 1	@ Tag_ABI_PCS_GOT_use
	.eabi_attribute	20, 2	@ Tag_ABI_FP_denormal
	.eabi_attribute	21, 0	@ Tag_ABI_FP_exceptions
	.eabi_attribute	23, 1	@ Tag_ABI_FP_number_model
	.eabi_attribute	24, 1	@ Tag_ABI_align_needed
	.eabi_attribute	25, 1	@ Tag_ABI_align_preserved
	.eabi_attribute	28, 1	@ Tag_ABI_VFP_args
	.eabi_attribute	38, 1	@ Tag_ABI_FP_16bit_format
	.eabi_attribute	18, 2	@ Tag_ABI_PCS_wchar_t
	.eabi_attribute	26, 1	@ Tag_ABI_enum_size
	.eabi_attribute	14, 0	@ Tag_ABI_PCS_R9_use
	.file	"M48XTouchPanel.c"
	.file	1 "C:\\Users\\dinhl" "AppData\\Local\\Keil_v5\\ARM\\ARMCLANG\\bin\\..\\include\\stdint.h"
	.file	2 "C:\\Users\\dinhl\\Music\\ASSIGNMENT3_GROUP_SE\\ASSIGNMENT3_Excercise2" "Library/tslib/M48XTouchPanel.c"
	.file	3 "C:\\Users\\dinhl\\Music\\ASSIGNMENT3_GROUP_SE\\ASSIGNMENT3_Excercise2" "./Library/Device/Nuvoton/M480/Include\\M480.h"
	.file	4 "C:\\Users\\dinhl\\Music\\ASSIGNMENT3_GROUP_SE\\ASSIGNMENT3_Excercise2" "./Library/Device/Nuvoton/M480/Include\\eadc_reg.h"
	.file	5 "C:\\Users\\dinhl\\Music\\ASSIGNMENT3_GROUP_SE\\ASSIGNMENT3_Excercise2" "./Library/Device/Nuvoton/M480/Include\\gpio_reg.h"
	.file	6 "C:\\Users\\dinhl\\Music\\ASSIGNMENT3_GROUP_SE\\ASSIGNMENT3_Excercise2" "./Library/Device/Nuvoton/M480/Include\\sys_reg.h"
	.file	7 "C:\\Users\\dinhl\\Music\\ASSIGNMENT3_GROUP_SE\\ASSIGNMENT3_Excercise2" "./Library/CMSIS/Include\\core_cm4.h"
	.section	.text.Init_TouchPanel,"ax",%progbits
	.hidden	Init_TouchPanel                 @ -- Begin function Init_TouchPanel
	.globl	Init_TouchPanel
	.p2align	2
	.type	Init_TouchPanel,%function
	.code	16                              @ @Init_TouchPanel
	.thumb_func
Init_TouchPanel:
.Lfunc_begin0:
	.loc	2 13 0                          @ Library/tslib/M48XTouchPanel.c:13:0
	.fnstart
	.cfi_sections .debug_frame
	.cfi_startproc
@ %bb.0:
	.save	{r4, lr}
	push	{r4, lr}
	.cfi_def_cfa_offset 8
	.cfi_offset lr, -4
	.cfi_offset r4, -8
	movw	r4, #65052
	movt	r4, #16387
.Ltmp0:
	.loc	2 15 5 prologue_end             @ Library/tslib/M48XTouchPanel.c:15:5
	mov	r0, r4
	bl	CLK_EnableModuleClock
.Ltmp1:
	.loc	2 18 5                          @ Library/tslib/M48XTouchPanel.c:18:5
	mov	r0, r4
	movs	r1, #0
	mov.w	r2, #458752
	bl	CLK_SetModuleClock
.Ltmp2:
	.loc	2 0 5 is_stmt 0                 @ Library/tslib/M48XTouchPanel.c:0:5
	movw	r0, #12288
	movt	r0, #16388
	.loc	2 22 5 is_stmt 1                @ Library/tslib/M48XTouchPanel.c:22:5
	movs	r1, #0
	bl	EADC_Open
.Ltmp3:
	.loc	2 24 5                          @ Library/tslib/M48XTouchPanel.c:24:5
	movs	r0, #1
	.loc	2 24 5 epilogue_begin is_stmt 0 @ Library/tslib/M48XTouchPanel.c:24:5
	pop	{r4, pc}
.Ltmp4:
.Lfunc_end0:
	.size	Init_TouchPanel, .Lfunc_end0-Init_TouchPanel
	.cfi_endproc
	.cantunwind
	.fnend
                                        @ -- End function
	.section	.text.EADC01_IRQHandler,"ax",%progbits
	.hidden	EADC01_IRQHandler               @ -- Begin function EADC01_IRQHandler
	.globl	EADC01_IRQHandler
	.p2align	2
	.type	EADC01_IRQHandler,%function
	.code	16                              @ @EADC01_IRQHandler
	.thumb_func
EADC01_IRQHandler:
.Lfunc_begin1:
	.loc	2 34 0 is_stmt 1                @ Library/tslib/M48XTouchPanel.c:34:0
	.fnstart
	.cfi_startproc
@ %bb.0:
	movw	r0, #12536
	movt	r0, #16388
	movs	r1, #2
.Ltmp5:
	.loc	2 36 5 prologue_end             @ Library/tslib/M48XTouchPanel.c:36:5
	str	r1, [r0]
	.loc	2 38 24                         @ Library/tslib/M48XTouchPanel.c:38:24
	movw	r0, :lower16:g_u32AdcIntFlag_TP
	movt	r0, :upper16:g_u32AdcIntFlag_TP
	movs	r1, #1
	str	r1, [r0]
	.loc	2 40 1                          @ Library/tslib/M48XTouchPanel.c:40:1
	bx	lr
.Ltmp6:
.Lfunc_end1:
	.size	EADC01_IRQHandler, .Lfunc_end1-EADC01_IRQHandler
	.cfi_endproc
	.cantunwind
	.fnend
                                        @ -- End function
	.section	.text.Get_TP_X,"ax",%progbits
	.hidden	Get_TP_X                        @ -- Begin function Get_TP_X
	.globl	Get_TP_X
	.p2align	2
	.type	Get_TP_X,%function
	.code	16                              @ @Get_TP_X
	.thumb_func
Get_TP_X:
.Lfunc_begin2:
	.loc	2 47 0                          @ Library/tslib/M48XTouchPanel.c:47:0
	.fnstart
	.cfi_startproc
@ %bb.0:
	.save	{r4, r5, r6, r7, r8, lr}
	push.w	{r4, r5, r6, r7, r8, lr}
	.cfi_def_cfa_offset 24
	.cfi_offset lr, -4
	.cfi_offset r8, -8
	.cfi_offset r7, -12
	.cfi_offset r6, -16
	.cfi_offset r5, -20
	.cfi_offset r4, -24
	movw	r7, #16452
	movt	r7, #16384
	movw	r5, #12368
.Ltmp7:
	.loc	2 51 5 prologue_end             @ Library/tslib/M48XTouchPanel.c:51:5
	subs	r0, r7, #4
	mov.w	r1, #512
	movs	r2, #1
	movt	r5, #16388
	mov.w	r8, #1
	bl	GPIO_SetMode
.Ltmp8:
	.loc	2 52 5                          @ Library/tslib/M48XTouchPanel.c:52:5
	add.w	r4, r7, #380
	mov	r0, r4
	movs	r1, #32
	movs	r2, #0
	movs	r6, #0
	bl	GPIO_SetMode
.Ltmp9:
	.loc	2 53 5                          @ Library/tslib/M48XTouchPanel.c:53:5
	mov	r0, r4
	movs	r1, #16
	movs	r2, #1
	bl	GPIO_SetMode
.Ltmp10:
	.loc	2 0 5 is_stmt 0                 @ Library/tslib/M48XTouchPanel.c:0:5
	movw	r0, #18532
	movt	r0, #16384
	.loc	2 54 9 is_stmt 1                @ Library/tslib/M48XTouchPanel.c:54:9
	str.w	r8, [r0]
	.loc	2 55 9                          @ Library/tslib/M48XTouchPanel.c:55:9
	str.w	r6, [r0, #364]
	movs	r0, #60
	movt	r0, #16384
	.loc	2 58 19                         @ Library/tslib/M48XTouchPanel.c:58:19
	ldr	r1, [r0]
	.loc	2 65 5                          @ Library/tslib/M48XTouchPanel.c:65:5
	movs	r2, #0
	.loc	2 58 19                         @ Library/tslib/M48XTouchPanel.c:58:19
	bic	r1, r1, #255
	str	r1, [r0]
	.loc	2 59 19                         @ Library/tslib/M48XTouchPanel.c:59:19
	ldr	r1, [r0]
	.loc	2 65 5                          @ Library/tslib/M48XTouchPanel.c:65:5
	movs	r3, #8
	.loc	2 59 19                         @ Library/tslib/M48XTouchPanel.c:59:19
	orr	r1, r1, #1
	str	r1, [r0]
	.loc	2 62 5                          @ Library/tslib/M48XTouchPanel.c:62:5
	ldr	r0, [r7]
	.loc	2 65 5                          @ Library/tslib/M48XTouchPanel.c:65:5
	movs	r1, #1
	.loc	2 62 5                          @ Library/tslib/M48XTouchPanel.c:62:5
	orr	r0, r0, #16777216
	str	r0, [r7]
	.loc	2 65 5                          @ Library/tslib/M48XTouchPanel.c:65:5
	sub.w	r0, r5, #80
	bl	EADC_ConfigSampleModule
.Ltmp11:
	.loc	2 0 5 is_stmt 0                 @ Library/tslib/M48XTouchPanel.c:0:5
	movs	r1, #2
	.loc	2 68 5 is_stmt 1                @ Library/tslib/M48XTouchPanel.c:68:5
	str.w	r1, [r5, #168]
	.loc	2 71 5                          @ Library/tslib/M48XTouchPanel.c:71:5
	ldr	r0, [r5]
	mov.w	r2, #2048
.Ltmp12:
	@DEBUG_VALUE: __NVIC_EnableIRQ:IRQn <- 43
	orr	r0, r0, #8
	str	r0, [r5]
	.loc	2 72 5                          @ Library/tslib/M48XTouchPanel.c:72:5
	ldr.w	r0, [r5, #132]
	orr	r0, r0, #2
	str.w	r0, [r5, #132]
	movw	r0, #57604
	movt	r0, #57344
.Ltmp13:
	.loc	7 1676 52                       @ ./Library/CMSIS/Include\core_cm4.h:1676:52
	str	r2, [r0]
.Ltmp14:
	.loc	2 76 24                         @ Library/tslib/M48XTouchPanel.c:76:24
	movw	r0, :lower16:g_u32AdcIntFlag_TP
	movt	r0, :upper16:g_u32AdcIntFlag_TP
	str	r6, [r0]
	.loc	2 77 5                          @ Library/tslib/M48XTouchPanel.c:77:5
	str	r1, [r5, #4]
.Ltmp15:
	.p2align	2
.LBB2_1:                                @ =>This Inner Loop Header: Depth=1
	.loc	2 80 11                         @ Library/tslib/M48XTouchPanel.c:80:11
	ldr	r1, [r0]
	.loc	2 80 5 is_stmt 0                @ Library/tslib/M48XTouchPanel.c:80:5
	cbnz	r1, .LBB2_5
@ %bb.2:                                @   in Loop: Header=BB2_1 Depth=1
	.loc	2 80 11                         @ Library/tslib/M48XTouchPanel.c:80:11
	ldr	r1, [r0]
	.loc	2 80 5                          @ Library/tslib/M48XTouchPanel.c:80:5
	cbnz	r1, .LBB2_5
@ %bb.3:                                @   in Loop: Header=BB2_1 Depth=1
	.loc	2 80 11                         @ Library/tslib/M48XTouchPanel.c:80:11
	ldr	r1, [r0]
	.loc	2 80 5                          @ Library/tslib/M48XTouchPanel.c:80:5
	cbnz	r1, .LBB2_5
@ %bb.4:                                @   in Loop: Header=BB2_1 Depth=1
	.loc	2 80 11                         @ Library/tslib/M48XTouchPanel.c:80:11
	ldr	r1, [r0]
	.loc	2 80 5                          @ Library/tslib/M48XTouchPanel.c:80:5
	cmp	r1, #0
	beq	.LBB2_1
.LBB2_5:
	.loc	2 81 16 is_stmt 1               @ Library/tslib/M48XTouchPanel.c:81:16
	ldr	r0, [r5, #-76]
	.loc	2 82 5                          @ Library/tslib/M48XTouchPanel.c:82:5
	uxth	r0, r0
.Ltmp16:
	@DEBUG_VALUE: Get_TP_X:x_adc_in <- $r0
	.loc	2 82 5 epilogue_begin is_stmt 0 @ Library/tslib/M48XTouchPanel.c:82:5
	pop.w	{r4, r5, r6, r7, r8, pc}
.Ltmp17:
.Lfunc_end2:
	.size	Get_TP_X, .Lfunc_end2-Get_TP_X
	.cfi_endproc
	.cantunwind
	.fnend
                                        @ -- End function
	.section	.text.Get_TP_Y,"ax",%progbits
	.hidden	Get_TP_Y                        @ -- Begin function Get_TP_Y
	.globl	Get_TP_Y
	.p2align	2
	.type	Get_TP_Y,%function
	.code	16                              @ @Get_TP_Y
	.thumb_func
Get_TP_Y:
.Lfunc_begin3:
	.loc	2 92 0 is_stmt 1                @ Library/tslib/M48XTouchPanel.c:92:0
	.fnstart
	.cfi_startproc
@ %bb.0:
	.save	{r4, r5, r6, r7, lr}
	push	{r4, r5, r6, r7, lr}
	.cfi_def_cfa_offset 20
	.cfi_offset lr, -4
	.cfi_offset r7, -8
	.cfi_offset r6, -12
	.cfi_offset r5, -16
	.cfi_offset r4, -20
	.pad	#4
	sub	sp, #4
	.cfi_def_cfa_offset 24
	movw	r6, #16452
	movt	r6, #16384
	movw	r5, #12368
.Ltmp18:
	.loc	2 96 5 prologue_end             @ Library/tslib/M48XTouchPanel.c:96:5
	subs	r0, r6, #4
	mov.w	r1, #256
	movs	r2, #1
	movt	r5, #16388
	movs	r7, #1
	bl	GPIO_SetMode
.Ltmp19:
	.loc	2 97 5                          @ Library/tslib/M48XTouchPanel.c:97:5
	add.w	r4, r6, #380
	mov	r0, r4
	movs	r1, #32
	movs	r2, #1
	bl	GPIO_SetMode
.Ltmp20:
	.loc	2 98 5                          @ Library/tslib/M48XTouchPanel.c:98:5
	mov	r0, r4
	movs	r1, #16
	movs	r2, #0
	movs	r4, #0
	bl	GPIO_SetMode
.Ltmp21:
	.loc	2 0 5 is_stmt 0                 @ Library/tslib/M48XTouchPanel.c:0:5
	movw	r0, #18900
	movt	r0, #16384
	.loc	2 99 9 is_stmt 1                @ Library/tslib/M48XTouchPanel.c:99:9
	str.w	r7, [r6, #2076]
	.loc	2 100 9                         @ Library/tslib/M48XTouchPanel.c:100:9
	str	r4, [r0]
	movs	r0, #60
	movt	r0, #16384
	.loc	2 103 19                        @ Library/tslib/M48XTouchPanel.c:103:19
	ldr	r1, [r0]
	.loc	2 110 5                         @ Library/tslib/M48XTouchPanel.c:110:5
	movs	r2, #0
	.loc	2 103 19                        @ Library/tslib/M48XTouchPanel.c:103:19
	bic	r1, r1, #255
	str	r1, [r0]
	.loc	2 104 19                        @ Library/tslib/M48XTouchPanel.c:104:19
	ldr	r1, [r0]
	.loc	2 110 5                         @ Library/tslib/M48XTouchPanel.c:110:5
	movs	r3, #9
	.loc	2 104 19                        @ Library/tslib/M48XTouchPanel.c:104:19
	orr	r1, r1, #16
	str	r1, [r0]
	.loc	2 107 5                         @ Library/tslib/M48XTouchPanel.c:107:5
	ldr	r0, [r6]
	.loc	2 110 5                         @ Library/tslib/M48XTouchPanel.c:110:5
	movs	r1, #2
	.loc	2 107 5                         @ Library/tslib/M48XTouchPanel.c:107:5
	orr	r0, r0, #33554432
	str	r0, [r6]
	.loc	2 110 5                         @ Library/tslib/M48XTouchPanel.c:110:5
	sub.w	r0, r5, #80
	movs	r6, #2
	bl	EADC_ConfigSampleModule
.Ltmp22:
	.loc	2 113 5                         @ Library/tslib/M48XTouchPanel.c:113:5
	str.w	r6, [r5, #168]
	.loc	2 116 5                         @ Library/tslib/M48XTouchPanel.c:116:5
	ldr	r0, [r5]
	mov.w	r1, #2048
.Ltmp23:
	@DEBUG_VALUE: __NVIC_EnableIRQ:IRQn <- 43
	orr	r0, r0, #16
	str	r0, [r5]
	.loc	2 117 5                         @ Library/tslib/M48XTouchPanel.c:117:5
	ldr.w	r0, [r5, #132]
	orr	r0, r0, #4
	str.w	r0, [r5, #132]
	movw	r0, #57604
	movt	r0, #57344
.Ltmp24:
	.loc	7 1676 52                       @ ./Library/CMSIS/Include\core_cm4.h:1676:52
	str	r1, [r0]
.Ltmp25:
	.loc	2 121 24                        @ Library/tslib/M48XTouchPanel.c:121:24
	movw	r0, :lower16:g_u32AdcIntFlag_TP
	movt	r0, :upper16:g_u32AdcIntFlag_TP
	movs	r1, #4
	str	r4, [r0]
	.loc	2 122 5                         @ Library/tslib/M48XTouchPanel.c:122:5
	str	r1, [r5, #4]
.Ltmp26:
	.p2align	2
.LBB3_1:                                @ =>This Inner Loop Header: Depth=1
	.loc	2 125 11                        @ Library/tslib/M48XTouchPanel.c:125:11
	ldr	r1, [r0]
	.loc	2 125 5 is_stmt 0               @ Library/tslib/M48XTouchPanel.c:125:5
	cbnz	r1, .LBB3_5
@ %bb.2:                                @   in Loop: Header=BB3_1 Depth=1
	.loc	2 125 11                        @ Library/tslib/M48XTouchPanel.c:125:11
	ldr	r1, [r0]
	.loc	2 125 5                         @ Library/tslib/M48XTouchPanel.c:125:5
	cbnz	r1, .LBB3_5
@ %bb.3:                                @   in Loop: Header=BB3_1 Depth=1
	.loc	2 125 11                        @ Library/tslib/M48XTouchPanel.c:125:11
	ldr	r1, [r0]
	.loc	2 125 5                         @ Library/tslib/M48XTouchPanel.c:125:5
	cbnz	r1, .LBB3_5
@ %bb.4:                                @   in Loop: Header=BB3_1 Depth=1
	.loc	2 125 11                        @ Library/tslib/M48XTouchPanel.c:125:11
	ldr	r1, [r0]
	.loc	2 125 5                         @ Library/tslib/M48XTouchPanel.c:125:5
	cmp	r1, #0
	beq	.LBB3_1
.LBB3_5:
	.loc	2 126 16 is_stmt 1              @ Library/tslib/M48XTouchPanel.c:126:16
	ldr	r0, [r5, #-72]
	.loc	2 127 5                         @ Library/tslib/M48XTouchPanel.c:127:5
	uxth	r0, r0
.Ltmp27:
	@DEBUG_VALUE: Get_TP_Y:y_adc_in <- $r0
	.loc	2 127 5 epilogue_begin is_stmt 0 @ Library/tslib/M48XTouchPanel.c:127:5
	add	sp, #4
	pop	{r4, r5, r6, r7, pc}
.Ltmp28:
.Lfunc_end3:
	.size	Get_TP_Y, .Lfunc_end3-Get_TP_Y
	.cfi_endproc
	.cantunwind
	.fnend
                                        @ -- End function
	.section	.text.Read_TouchPanel,"ax",%progbits
	.hidden	Read_TouchPanel                 @ -- Begin function Read_TouchPanel
	.globl	Read_TouchPanel
	.p2align	2
	.type	Read_TouchPanel,%function
	.code	16                              @ @Read_TouchPanel
	.thumb_func
Read_TouchPanel:
.Lfunc_begin4:
	.loc	2 132 0 is_stmt 1               @ Library/tslib/M48XTouchPanel.c:132:0
	.fnstart
	.cfi_startproc
@ %bb.0:
	@DEBUG_VALUE: Read_TouchPanel:x <- $r0
	@DEBUG_VALUE: Read_TouchPanel:y <- $r1
	.save	{r4, r5, r7, lr}
	push	{r4, r5, r7, lr}
	.cfi_def_cfa_offset 16
	.cfi_offset lr, -4
	.cfi_offset r7, -8
	.cfi_offset r5, -12
	.cfi_offset r4, -16
	mov	r4, r1
.Ltmp29:
	@DEBUG_VALUE: Read_TouchPanel:y <- $r4
	@DEBUG_VALUE: Read_TouchPanel:y <- $r4
	mov	r5, r0
.Ltmp30:
	@DEBUG_VALUE: Read_TouchPanel:x <- $r5
	@DEBUG_VALUE: Read_TouchPanel:x <- $r5
	.loc	2 134 10 prologue_end           @ Library/tslib/M48XTouchPanel.c:134:10
	bl	Get_TP_X
.Ltmp31:
	.loc	2 134 8 is_stmt 0               @ Library/tslib/M48XTouchPanel.c:134:8
	str	r0, [r5]
	.loc	2 135 10 is_stmt 1              @ Library/tslib/M48XTouchPanel.c:135:10
	bl	Get_TP_Y
.Ltmp32:
	.loc	2 135 8 is_stmt 0               @ Library/tslib/M48XTouchPanel.c:135:8
	str	r0, [r4]
.Ltmp33:
	.loc	2 139 11 is_stmt 1              @ Library/tslib/M48XTouchPanel.c:139:11
	ldr	r1, [r5]
	movs	r2, #0
	.loc	2 139 14 is_stmt 0              @ Library/tslib/M48XTouchPanel.c:139:14
	cmp.w	r1, #3840
	mov.w	r1, #0
	it	lt
	movlt	r1, #1
	cmp.w	r0, #3840
	it	lo
	movlo	r2, #1
	.loc	2 139 24                        @ Library/tslib/M48XTouchPanel.c:139:24
	and.w	r0, r1, r2
.Ltmp34:
	.loc	2 149 1 epilogue_begin is_stmt 1 @ Library/tslib/M48XTouchPanel.c:149:1
	pop	{r4, r5, r7, pc}
.Ltmp35:
.Lfunc_end4:
	.size	Read_TouchPanel, .Lfunc_end4-Read_TouchPanel
	.cfi_endproc
	.cantunwind
	.fnend
                                        @ -- End function
	.section	.text.Uninit_TouchPanel,"ax",%progbits
	.hidden	Uninit_TouchPanel               @ -- Begin function Uninit_TouchPanel
	.globl	Uninit_TouchPanel
	.p2align	2
	.type	Uninit_TouchPanel,%function
	.code	16                              @ @Uninit_TouchPanel
	.thumb_func
Uninit_TouchPanel:
.Lfunc_begin5:
	.fnstart
	.cfi_startproc
@ %bb.0:
	.loc	2 153 5 prologue_end            @ Library/tslib/M48XTouchPanel.c:153:5
	movs	r0, #1
	bx	lr
.Ltmp36:
.Lfunc_end5:
	.size	Uninit_TouchPanel, .Lfunc_end5-Uninit_TouchPanel
	.cfi_endproc
	.cantunwind
	.fnend
                                        @ -- End function
	.section	.text.Check_TouchPanel,"ax",%progbits
	.hidden	Check_TouchPanel                @ -- Begin function Check_TouchPanel
	.globl	Check_TouchPanel
	.p2align	2
	.type	Check_TouchPanel,%function
	.code	16                              @ @Check_TouchPanel
	.thumb_func
Check_TouchPanel:
.Lfunc_begin6:
	.fnstart
	.cfi_startproc
@ %bb.0:
	.loc	2 158 5 prologue_end            @ Library/tslib/M48XTouchPanel.c:158:5
	movs	r0, #0
	bx	lr
.Ltmp37:
.Lfunc_end6:
	.size	Check_TouchPanel, .Lfunc_end6-Check_TouchPanel
	.cfi_endproc
	.cantunwind
	.fnend
                                        @ -- End function
	.type	g_u32AdcIntFlag_TP,%object      @ @g_u32AdcIntFlag_TP
	.section	.bss.g_u32AdcIntFlag_TP,"aw",%nobits
	.p2align	2, 0x0
g_u32AdcIntFlag_TP:
	.long	0                               @ 0x0
	.size	g_u32AdcIntFlag_TP, 4

	.section	".note.GNU-stack","",%progbits
	.eabi_attribute	30, 1	@ Tag_ABI_optimization_goals
	.ARM_attribute	16, 1	@ Tag_AV_eba