	.text
	.syntax unified
	.eabi_attribute	67, "2.09"	@ Tag_conformance
	.cpu	cortex-m4
	.eabi_attribute	6, 13	@ Tag_CPU_arch
	.eabi_attribute	7, 77	@ Tag_CPU_arch_profile
	.eabi_attribute	8, 0	@ Tag_ARM_ISA_use
	.eabi_attribute	9, 2	@ Tag_THUMB_ISA_use
	.fpu	fpv4-sp-d16
	.eabi_attribute	27, 1	@ Tag_ABI_HardFP_use
	.eabi_attribute	36, 1	@ Tag_FP_HP_extension
	.eabi_attribute	34, 1	@ Tag_CPU_unaligned_access
	.eabi_attribute	17, 1	@ Tag_ABI_PCS_GOT_use
	.eabi_attribute	20, 2	@ Tag_ABI_FP_denormal
	.eabi_attribute	21, 0	@ Tag_ABI_FP_exceptions
	.eabi_attribute	23, 1	@ Tag_ABI_FP_number_model
	.eabi_attribute	24, 1	@ Tag_ABI_align_needed
	.eabi_attribute	25, 1	@ Tag_ABI_align_preserved
	.eabi_attribute	28, 1	@ Tag_ABI_VFP_args
	.eabi_attribute	38, 1	@ Tag_ABI_FP_16bit_format
	.eabi_attribute	18, 2	@ Tag_ABI_PCS_wchar_t
	.eabi_attribute	26, 1	@ Tag_ABI_enum_size
	.eabi_attribute	14, 0	@ Tag_ABI_PCS_R9_use
	.file	"main.c"
	.file	1 "C:\\Users\\dinhl\\Documents\\Tesy\\EEET2481_A3_TETRISGAME" "main.c"
	.file	2 "C:\\Users\\dinhl\\Documents\\Tesy\\EEET2481_A3_TETRISGAME" "./Library/emWin/Include\\TEXT.h"
	.file	3 "C:\\Users\\dinhl\\Documents\\Tesy\\EEET2481_A3_TETRISGAME" "./Library/Device/Nuvoton/M480/Include\\M480.h"
	.file	4 "C:\\Users\\dinhl" "AppData\\Local\\Keil_v5\\ARM\\ARMCLANG\\bin\\..\\include\\stdint.h"
	.file	5 "C:\\Users\\dinhl\\Documents\\Tesy\\EEET2481_A3_TETRISGAME" "./Library/Device/Nuvoton/M480/Include\\timer_reg.h"
	.file	6 "C:\\Users\\dinhl\\Documents\\Tesy\\EEET2481_A3_TETRISGAME" "./Library/Device/Nuvoton/M480/Include\\uart_reg.h"
	.file	7 "C:\\Users\\dinhl\\Documents\\Tesy\\EEET2481_A3_TETRISGAME" "./Library/Device/Nuvoton/M480/Include\\gpio_reg.h"
	.file	8 "C:\\Users\\dinhl\\Documents\\Tesy\\EEET2481_A3_TETRISGAME" "./Library/Device/Nuvoton/M480/Include\\clk_reg.h"
	.file	9 "C:\\Users\\dinhl\\Documents\\Tesy\\EEET2481_A3_TETRISGAME" "./Library/Device/Nuvoton/M480/Include\\sys_reg.h"
	.file	10 "C:\\Users\\dinhl\\Documents\\Tesy\\EEET2481_A3_TETRISGAME" "./Library/CMSIS/Include\\core_cm4.h"
	.section	.text.UpdateClock,"ax",%progbits
	.hidden	UpdateClock                     @ -- Begin function UpdateClock
	.globl	UpdateClock
	.p2align	2
	.type	UpdateClock,%function
	.code	16                              @ @UpdateClock
	.thumb_func
UpdateClock:
.Lfunc_begin0:
	.loc	1 38 0                          @ main.c:38:0
	.fnstart
	.cfi_sections .debug_frame
	.cfi_startproc
@ %bb.0:
	.save	{r7, lr}
	push	{r7, lr}
	.cfi_def_cfa_offset 8
	.cfi_offset lr, -4
	.cfi_offset r7, -8
.Ltmp0:
	.loc	1 39 30 prologue_end            @ main.c:39:30
	movw	r0, :lower16:time_value
	movt	r0, :upper16:time_value
	ldr	r2, [r0]
	.loc	1 39 5 is_stmt 0                @ main.c:39:5
	movw	r0, :lower16:timeStr
	movw	r1, :lower16:.L.str
	movt	r0, :upper16:timeStr
	movt	r1, :upper16:.L.str
	bl	__2sprintf
.Ltmp1:
	.loc	1 40 9 is_stmt 1                @ main.c:40:9
	movw	r0, :lower16:hTextClock
	movt	r0, :upper16:hTextClock
	ldr	r0, [r0]
.Ltmp2:
	.loc	1 40 9 is_stmt 0                @ main.c:40:9
	cmp	r0, #0
	.loc	1 43 1 is_stmt 1                @ main.c:43:1
	it	eq
	.loc	1 43 1 epilogue_begin is_stmt 0 @ main.c:43:1
	popeq	{r7, pc}
.LBB0_1:
.Ltmp3:
	.loc	1 41 9 is_stmt 1                @ main.c:41:9
	movw	r1, :lower16:timeStr
	movt	r1, :upper16:timeStr
	.loc	1 41 9 epilogue_begin is_stmt 0 @ main.c:41:9
	pop.w	{r7, lr}
.Ltmp4:
	b	TEXT_SetText
.Ltmp5:
.Lfunc_end0:
	.size	UpdateClock, .Lfunc_end0-UpdateClock
	.cfi_endproc
	.cantunwind
	.fnend
                                        @ -- End function
	.section	.text.TMR0_IRQHandler,"ax",%progbits
	.hidden	TMR0_IRQHandler                 @ -- Begin function TMR0_IRQHandler
	.globl	TMR0_IRQHandler
	.p2align	2
	.type	TMR0_IRQHandler,%function
	.code	16                              @ @TMR0_IRQHandler
	.thumb_func
TMR0_IRQHandler:
.Lfunc_begin1:
	.loc	1 148 0 is_stmt 1               @ main.c:148:0
	.fnstart
	.cfi_startproc
@ %bb.0:
	.save	{r7, lr}
	push	{r7, lr}
	.cfi_def_cfa_offset 8
	.cfi_offset lr, -4
	.cfi_offset r7, -8
.Ltmp6:
	.loc	1 149 14 prologue_end           @ main.c:149:14
	movw	r0, :lower16:OS_TimeMS
	movt	r0, :upper16:OS_TimeMS
	ldr	r1, [r0]
	movw	r2, #52429
	adds	r1, #1
	str	r1, [r0]
.Ltmp7:
	.loc	1 151 9                         @ main.c:151:9
	ldr	r0, [r0]
	movw	r1, #39320
	movt	r1, #6553
	movt	r2, #52428
	.loc	1 151 29 is_stmt 0              @ main.c:151:29
	mla	r0, r0, r2, r1
	ror.w	r0, r0, #1
	cmp	r0, r1
	bhi	.LBB1_2
@ %bb.1:
	.loc	1 151 32                        @ main.c:151:32
	movw	r0, :lower16:g_enable_Touch
	movt	r0, :upper16:g_enable_Touch
	ldr	r0, [r0]
.Ltmp8:
	.loc	1 151 9                         @ main.c:151:9
	cmp	r0, #0
.Ltmp9:
	.loc	1 152 9 is_stmt 1               @ main.c:152:9
	it	ne
	blne	GUI_TOUCH_Exec
.Ltmp10:
.LBB1_2:
	.loc	1 0 9 is_stmt 0                 @ main.c:0:9
	movs	r0, #8
	movt	r0, #16389
	movs	r1, #1
.Ltmp11:
	@DEBUG_VALUE: TIMER_ClearIntFlag:timer <- 1074069504
	.file	11 "C:\\Users\\dinhl\\Documents\\Tesy\\EEET2481_A3_TETRISGAME" "./Library/StdDriver/inc\\timer.h"
	.loc	11 389 19 is_stmt 1             @ ./Library/StdDriver/inc\timer.h:389:19
	str	r1, [r0]
.Ltmp12:
	@DEBUG_VALUE: TIMER_GetCounter:timer <- 1074069504
	.loc	11 475 19                       @ ./Library/StdDriver/inc\timer.h:475:19
	ldr	r0, [r0, #4]
.Ltmp13:
	.loc	1 156 1 epilogue_begin          @ main.c:156:1
	pop	{r7, pc}
.Ltmp14:
.Lfunc_end1:
	.size	TMR0_IRQHandler, .Lfunc_end1-TMR0_IRQHandler
	.cfi_endproc
	.cantunwind
	.fnend
                                        @ -- End function
	.section	.text.APPW_X_FS_Init,"ax",%progbits
	.hidden	APPW_X_FS_Init                  @ -- Begin function APPW_X_FS_Init
	.globl	APPW_X_FS_Init
	.p2align	2
	.type	APPW_X_FS_Init,%function
	.code	16                              @ @APPW_X_FS_Init
	.thumb_func
APPW_X_FS_Init:
.Lfunc_begin2:
	.fnstart
	.cfi_startproc
@ %bb.0:
	.loc	1 158 28 prologue_end           @ main.c:158:28
	bx	lr
.Ltmp15:
.Lfunc_end2:
	.size	APPW_X_FS_Init, .Lfunc_end2-APPW_X_FS_Init
	.cfi_endproc
	.cantunwind
	.fnend
                                        @ -- End function
	.section	.text.main,"ax",%progbits
	.hidden	main                            @ -- Begin function main
	.globl	main
	.p2align	2
	.type	main,%function
	.code	16                              @ @main
	.thumb_func
main:
.Lfunc_begin3:
	.loc	1 160 0                         @ main.c:160:0
	.fnstart
	.cfi_startproc
@ %bb.0:
	.pad	#24
	sub	sp, #24
	.cfi_def_cfa_offset 24
	movw	r5, #256
	movt	r5, #16384
	movs	r0, #89
	movs	r1, #22
	movs	r2, #136
	.p2align	2
.LBB3_1:                                @ =>This Inner Loop Header: Depth=1
.Ltmp16:
	.file	12 "C:\\Users\\dinhl\\Documents\\Tesy\\EEET2481_A3_TETRISGAME" "./Library/StdDriver/inc\\sys.h"
	.loc	12 1590 22 prologue_end         @ ./Library/StdDriver/inc\sys.h:1590:22
	str	r0, [r5]
	.loc	12 1591 22                      @ ./Library/StdDriver/inc\sys.h:1591:22
	str	r1, [r5]
	.loc	12 1592 22                      @ ./Library/StdDriver/inc\sys.h:1592:22
	str	r2, [r5]
.Ltmp17:
	.loc	12 1594 16                      @ ./Library/StdDriver/inc\sys.h:1594:16
	ldr	r3, [r5]
.Ltmp18:
	.loc	12 1593 5                       @ ./Library/StdDriver/inc\sys.h:1593:5
	cbnz	r3, .LBB3_5
@ %bb.2:                                @   in Loop: Header=BB3_1 Depth=1
	.loc	12 1590 22                      @ ./Library/StdDriver/inc\sys.h:1590:22
	str	r0, [r5]
	.loc	12 1591 22                      @ ./Library/StdDriver/inc\sys.h:1591:22
	str	r1, [r5]
	.loc	12 1592 22                      @ ./Library/StdDriver/inc\sys.h:1592:22
	str	r2, [r5]
.Ltmp19:
	.loc	12 1594 16                      @ ./Library/StdDriver/inc\sys.h:1594:16
	ldr	r3, [r5]
.Ltmp20:
	.loc	12 1593 5                       @ ./Library/StdDriver/inc\sys.h:1593:5
	cbnz	r3, .LBB3_5
@ %bb.3:                                @   in Loop: Header=BB3_1 Depth=1
	.loc	12 1590 22                      @ ./Library/StdDriver/inc\sys.h:1590:22
	str	r0, [r5]
	.loc	12 1591 22                      @ ./Library/StdDriver/inc\sys.h:1591:22
	str	r1, [r5]
	.loc	12 1592 22                      @ ./Library/StdDriver/inc\sys.h:1592:22
	str	r2, [r5]
.Ltmp21:
	.loc	12 1594 16                      @ ./Library/StdDriver/inc\sys.h:1594:16
	ldr	r3, [r5]
.Ltmp22:
	.loc	12 1593 5                       @ ./Library/StdDriver/inc\sys.h:1593:5
	cbnz	r3, .LBB3_5
@ %bb.4:                                @   in Loop: Header=BB3_1 Depth=1
	.loc	12 1590 22                      @ ./Library/StdDriver/inc\sys.h:1590:22
	str	r0, [r5]
	.loc	12 1591 22                      @ ./Library/StdDriver/inc\sys.h:1591:22
	str	r1, [r5]
	.loc	12 1592 22                      @ ./Library/StdDriver/inc\sys.h:1592:22
	str	r2, [r5]
.Ltmp23:
	.loc	12 1594 16                      @ ./Library/StdDriver/inc\sys.h:1594:16
	ldr	r3, [r5]
.Ltmp24:
	.loc	12 1593 5                       @ ./Library/StdDriver/inc\sys.h:1593:5
	cmp	r3, #0
	beq	.LBB3_1
.Ltmp25:
.LBB3_5:
	.loc	12 0 5 is_stmt 0                @ ./Library/StdDriver/inc\sys.h:0:5
	movw	r4, #57360
	movw	r10, #18436
	movw	r6, #18432
	.loc	1 108 5 is_stmt 1               @ main.c:108:5
	movs	r0, #4
	movt	r4, #57344
	movt	r10, #16384
	movt	r6, #16384
	bl	CLK_EnableXtalRC
.Ltmp26:
	.loc	1 109 5                         @ main.c:109:5
	movs	r0, #16
	bl	CLK_WaitClockReady
.Ltmp27:
	.loc	1 110 5                         @ main.c:110:5
	movs	r0, #7
	movs	r1, #0
	movs	r7, #0
	bl	CLK_SetHCLK
.Ltmp28:
	.loc	1 111 5                         @ main.c:111:5
	movs	r0, #1
	mov.w	r11, #1
	bl	CLK_EnableXtalRC
.Ltmp29:
	.loc	1 112 5                         @ main.c:112:5
	movs	r0, #1
	bl	CLK_WaitClockReady
.Ltmp30:
	.loc	1 0 5 is_stmt 0                 @ main.c:0:5
	movw	r0, #45056
	movt	r0, #2929
	.loc	1 113 5 is_stmt 1               @ main.c:113:5
	bl	CLK_SetCoreClock
.Ltmp31:
	.loc	1 114 5                         @ main.c:114:5
	movs	r0, #24
	bl	CLK_SetSysTickClockSrc
.Ltmp32:
	.loc	1 0 5 is_stmt 0                 @ main.c:0:5
	movw	r8, #15632
	movs	r0, #17
	movt	r8, #22400
	.loc	1 115 18 is_stmt 1              @ main.c:115:18
	str.w	r0, [r5, #308]
	.loc	1 117 5                         @ main.c:117:5
	mov	r0, r8
	bl	CLK_EnableModuleClock
.Ltmp33:
	.loc	1 118 5                         @ main.c:118:5
	movs	r0, #3
	bl	CLK_EnableModuleClock
.Ltmp34:
	.loc	1 0 5 is_stmt 0                 @ main.c:0:5
	movw	r9, #2
	movt	r9, #24192
	.loc	1 119 5 is_stmt 1               @ main.c:119:5
	mov	r0, r9
	bl	CLK_EnableModuleClock
.Ltmp35:
	.loc	1 121 5                         @ main.c:121:5
	mov	r0, r8
	movs	r1, #0
	movs	r2, #0
	bl	CLK_SetModuleClock
.Ltmp36:
	.loc	1 122 5                         @ main.c:122:5
	mov	r0, r9
	movs	r1, #0
	movs	r2, #0
	bl	CLK_SetModuleClock
.Ltmp37:
	.loc	1 124 17                        @ main.c:124:17
	ldr.w	r0, [r5, #260]
	movs	r1, #22
	orr	r0, r0, #16384
	str.w	r0, [r5, #260]
	movw	r0, #28676
	movt	r0, #16384
	.loc	1 125 5                         @ main.c:125:5
	str	r1, [r0]
	.loc	1 127 19                        @ main.c:127:19
	ldr	r0, [r5, #-196]
	bic	r0, r0, #16711680
	str	r0, [r5, #-196]
	.loc	1 128 19                        @ main.c:128:19
	ldr	r0, [r5, #-196]
	orr	r0, r0, #6684672
	str	r0, [r5, #-196]
	.loc	1 144 5                         @ main.c:144:5
	bl	SystemCoreClockUpdate
.Ltmp38:
	.loc	12 1606 18                      @ ./Library/StdDriver/inc\sys.h:1606:18
	str	r7, [r5]
	movs	r5, #0
	movt	r5, #16389
.Ltmp39:
	.loc	1 162 5                         @ main.c:162:5
	add.w	r0, r5, #131072
	mov.w	r1, #115200
	bl	UART_Open
.Ltmp40:
	.loc	1 163 20                        @ main.c:163:20
	movw	r8, :lower16:g_enable_Touch
	movt	r8, :upper16:g_enable_Touch
	.loc	1 165 5                         @ main.c:165:5
	mov	r0, r9
	.loc	1 163 20                        @ main.c:163:20
	str.w	r7, [r8]
	.loc	1 165 5                         @ main.c:165:5
	bl	CLK_EnableModuleClock
.Ltmp41:
	.loc	1 166 5                         @ main.c:166:5
	mov	r0, r9
	movs	r1, #0
	movs	r2, #0
	bl	CLK_SetModuleClock
.Ltmp42:
	.loc	1 167 5                         @ main.c:167:5
	mov	r0, r5
	mov.w	r1, #134217728
	mov.w	r2, #1000
	bl	TIMER_Open
.Ltmp43:
	@DEBUG_VALUE: TIMER_EnableInt:timer <- 1074069504
	.loc	11 318 16                       @ ./Library/StdDriver/inc\timer.h:318:16
	ldr	r0, [r5]
.Ltmp44:
	.loc	1 173 5                         @ main.c:173:5
	movs	r1, #3
.Ltmp45:
	.loc	11 318 16                       @ ./Library/StdDriver/inc\timer.h:318:16
	orr	r0, r0, #536870912
	str	r0, [r5]
.Ltmp46:
	.loc	10 1804 55                      @ ./Library/CMSIS/Include\core_cm4.h:1804:55
	movs	r0, #16
.Ltmp47:
	@DEBUG_VALUE: __NVIC_SetPriority:priority <- 1
	@DEBUG_VALUE: __NVIC_SetPriority:IRQn <- 32
	strb.w	r0, [r4, #1040]
.Ltmp48:
	@DEBUG_VALUE: __NVIC_EnableIRQ:IRQn <- 32
	.loc	10 1676 52                      @ ./Library/CMSIS/Include\core_cm4.h:1676:52
	str.w	r11, [r4, #244]
.Ltmp49:
	@DEBUG_VALUE: TIMER_Start:timer <- 1074069504
	.loc	11 176 16                       @ ./Library/StdDriver/inc\timer.h:176:16
	ldr	r0, [r5]
.Ltmp50:
	.loc	1 173 5                         @ main.c:173:5
	movs	r2, #0
.Ltmp51:
	.loc	11 176 16                       @ ./Library/StdDriver/inc\timer.h:176:16
	orr	r0, r0, #1073741824
	str	r0, [r5]
.Ltmp52:
	.loc	1 173 5                         @ main.c:173:5
	mov.w	r0, #1073758208
	bl	GPIO_SetMode
.Ltmp53:
	.loc	1 174 5                         @ main.c:174:5
	sub.w	r0, r6, #1664
	movs	r1, #28
	movs	r2, #0
	bl	GPIO_SetMode
.Ltmp54:
	.loc	1 175 5                         @ main.c:175:5
	sub.w	r0, r6, #1920
	mov.w	r1, #1536
	movs	r2, #0
	bl	GPIO_SetMode
.Ltmp55:
	.loc	1 177 5                         @ main.c:177:5
	bl	GUI_Init
.Ltmp56:
	.loc	1 178 5                         @ main.c:178:5
	bl	Init_TouchPanel
.Ltmp57:
	.loc	1 179 20                        @ main.c:179:20
	str.w	r11, [r8]
	.loc	1 181 5                         @ main.c:181:5
	bl	APPW_X_Setup
.Ltmp58:
	.loc	1 182 5                         @ main.c:182:5
	adr	r0, .LCPI3_0
	bl	APPW_Init
.Ltmp59:
	.loc	1 183 5                         @ main.c:183:5
	bl	APPW_CreatePersistentScreens
.Ltmp60:
	.loc	1 184 50                        @ main.c:184:50
	bl	WM_GetDesktopWindow
.Ltmp61:
	mov	r1, r0
	.loc	1 184 5 is_stmt 0               @ main.c:184:5
	movw	r0, :lower16:ID_SCREEN_WELCOME_RootInfo
	movt	r0, :upper16:ID_SCREEN_WELCOME_RootInfo
	bl	APPW_CreateRoot
.Ltmp62:
	.loc	1 185 18 is_stmt 1              @ main.c:185:18
	movw	r9, :lower16:currentState
	movt	r9, :upper16:currentState
	movw	r5, :lower16:time_value
	movw	r8, :lower16:timeStr
	strb.w	r7, [r9]
	movt	r5, :upper16:time_value
	movt	r8, :upper16:timeStr
	b	.LBB3_7
.Ltmp63:
	.p2align	2
.LBB3_6:                                @   in Loop: Header=BB3_7 Depth=1
	.loc	1 188 28                        @ main.c:188:28
	bl	APPW_Exec
.Ltmp64:
.LBB3_7:                                @ =>This Loop Header: Depth=1
                                        @     Child Loop BB3_36 Depth 2
                                        @     Child Loop BB3_29 Depth 2
	.loc	1 188 16 is_stmt 0              @ main.c:188:16
	bl	GUI_Exec
.Ltmp65:
	.loc	1 188 9                         @ main.c:188:9
	cmp	r0, #0
	bne	.LBB3_6
@ %bb.8:                                @   in Loop: Header=BB3_7 Depth=1
	.loc	1 189 9 is_stmt 1               @ main.c:189:9
	bl	APPW_Exec
.Ltmp66:
	.loc	1 190 9                         @ main.c:190:9
	movs	r0, #1
	bl	GUI_X_Delay
.Ltmp67:
	.loc	1 192 13                        @ main.c:192:13
	ldr	r0, [r6]
.Ltmp68:
	.loc	1 192 13 is_stmt 0              @ main.c:192:13
	cbz	r0, .LBB3_11
.LBB3_9:                                @   in Loop: Header=BB3_7 Depth=1
.Ltmp69:
	.loc	1 223 13 is_stmt 1              @ main.c:223:13
	ldrb.w	r0, [r9]
.Ltmp70:
.LBB3_10:                               @   in Loop: Header=BB3_7 Depth=1
	.loc	1 223 13 is_stmt 0              @ main.c:223:13
	cmp	r0, #1
	bne	.LBB3_7
	b	.LBB3_16
.LBB3_11:                               @   in Loop: Header=BB3_7 Depth=1
.Ltmp71:
	.loc	1 193 21 is_stmt 1              @ main.c:193:21
	ldrb.w	r0, [r9]
	.loc	1 193 13 is_stmt 0              @ main.c:193:13
	cmp	r0, #4
	bhi	.LBB3_10
@ %bb.12:                               @   in Loop: Header=BB3_7 Depth=1
.LCPI3_3:
	tbb	[pc, r0]
@ %bb.13:
	.loc	1 0 13                          @ main.c:0:13
.LJTI3_0:
	.byte	(.LBB3_33-(.LCPI3_3+4))/2
	.byte	(.LBB3_14-(.LCPI3_3+4))/2
	.byte	(.LBB3_15-(.LCPI3_3+4))/2
	.byte	(.LBB3_40-(.LCPI3_3+4))/2
	.byte	(.LBB3_15-(.LCPI3_3+4))/2
	.p2align	1
.LBB3_14:                               @   in Loop: Header=BB3_7 Depth=1
	b	.LBB3_10
.LBB3_15:                               @   in Loop: Header=BB3_7 Depth=1
.Ltmp72:
	bl	WM_GetDesktopWindow
.Ltmp73:
	mov	r1, r0
	movw	r0, :lower16:ID_SCREEN_PLAY_RootInfo
	movt	r0, :upper16:ID_SCREEN_PLAY_RootInfo
	bl	APPW_CreateRoot
.Ltmp74:
	movs	r0, #1
	strb.w	r0, [r9]
.Ltmp75:
.LBB3_16:                               @   in Loop: Header=BB3_7 Depth=1
	.loc	1 224 29 is_stmt 1              @ main.c:224:29
	ldr.w	r11, [r5]
.Ltmp76:
	@DEBUG_VALUE: prev_time <- $r11
	.loc	1 226 17                        @ main.c:226:17
	ldr	r0, [r6]
	.loc	1 226 26 is_stmt 0              @ main.c:226:26
	cbz	r0, .LBB3_19
.Ltmp77:
@ %bb.17:                               @   in Loop: Header=BB3_7 Depth=1
	@DEBUG_VALUE: prev_time <- $r11
	.loc	1 226 29                        @ main.c:226:29
	ldr.w	r0, [r10, #388]
	.loc	1 226 38                        @ main.c:226:38
	cbz	r0, .LBB3_19
.Ltmp78:
@ %bb.18:                               @   in Loop: Header=BB3_7 Depth=1
	@DEBUG_VALUE: prev_time <- $r11
	.loc	1 226 41                        @ main.c:226:41
	ldr.w	r0, [r10, #396]
.Ltmp79:
	.loc	1 226 17                        @ main.c:226:17
	cbnz	r0, .LBB3_20
.Ltmp80:
.LBB3_19:                               @   in Loop: Header=BB3_7 Depth=1
	@DEBUG_VALUE: prev_time <- $r11
	.loc	1 228 21 is_stmt 1              @ main.c:228:21
	mov	r0, r11
	cmp.w	r11, #9
	it	ge
	movge	r0, #9
	adds	r0, #1
	.loc	1 228 0 is_stmt 0               @ main.c:228:0
	str	r0, [r5]
	.loc	1 229 9 is_stmt 1               @ main.c:229:9
	adr	r0, .LCPI3_2
	bl	__2printf
.Ltmp81:
.LBB3_20:                               @   in Loop: Header=BB3_7 Depth=1
	@DEBUG_VALUE: prev_time <- $r11
	.loc	1 231 18                        @ main.c:231:18
	ldr.w	r0, [r10]
	.loc	1 231 28 is_stmt 0              @ main.c:231:28
	cbz	r0, .LBB3_25
.Ltmp82:
@ %bb.21:                               @   in Loop: Header=BB3_7 Depth=1
	@DEBUG_VALUE: prev_time <- $r11
	.loc	1 231 32                        @ main.c:231:32
	ldr.w	r0, [r10, #392]
	.loc	1 231 42                        @ main.c:231:42
	cbz	r0, .LBB3_25
.Ltmp83:
@ %bb.22:                               @   in Loop: Header=BB3_7 Depth=1
	@DEBUG_VALUE: prev_time <- $r11
	.loc	1 231 46                        @ main.c:231:46
	ldr.w	r0, [r10, #164]
	.loc	1 231 57                        @ main.c:231:57
	cbz	r0, .LBB3_25
.Ltmp84:
@ %bb.23:                               @   in Loop: Header=BB3_7 Depth=1
	@DEBUG_VALUE: prev_time <- $r11
	.loc	1 231 61                        @ main.c:231:61
	ldr.w	r0, [r10, #160]
.Ltmp85:
	.loc	1 231 17                        @ main.c:231:17
	cbz	r0, .LBB3_25
.Ltmp86:
@ %bb.24:                               @   in Loop: Header=BB3_7 Depth=1
	@DEBUG_VALUE: prev_time <- $r11
	.loc	1 236 17 is_stmt 1              @ main.c:236:17
	ldr	r1, [r5]
.Ltmp87:
	.loc	1 236 17 is_stmt 0              @ main.c:236:17
	cmp	r1, r11
	bne	.LBB3_26
	b	.LBB3_28
.Ltmp88:
.LBB3_25:                               @   in Loop: Header=BB3_7 Depth=1
	@DEBUG_VALUE: prev_time <- $r11
	.loc	1 232 27 is_stmt 1              @ main.c:232:27
	ldr	r0, [r5]
	.loc	1 233 21                        @ main.c:233:21
	movs	r1, #1
	cmp	r0, #1
	it	le
	movle	r0, r1
	subs	r1, r0, #1
	.loc	1 233 0 is_stmt 0               @ main.c:233:0
	str	r1, [r5]
.Ltmp89:
	.loc	1 236 17 is_stmt 1              @ main.c:236:17
	cmp	r1, r11
	beq	.LBB3_28
.Ltmp90:
.LBB3_26:                               @   in Loop: Header=BB3_7 Depth=1
	@DEBUG_VALUE: prev_time <- $r11
	.loc	1 237 17                        @ main.c:237:17
	mov.w	r0, #4096
	bl	APPW_SetVarData
.Ltmp91:
	.loc	1 39 30                         @ main.c:39:30
	ldr	r2, [r5]
	.loc	1 39 5 is_stmt 0                @ main.c:39:5
	movw	r1, :lower16:.L.str
	mov	r0, r8
	movt	r1, :upper16:.L.str
	bl	__2sprintf
.Ltmp92:
	.loc	1 40 9 is_stmt 1                @ main.c:40:9
	movw	r0, :lower16:hTextClock
	movt	r0, :upper16:hTextClock
	ldr	r0, [r0]
.Ltmp93:
	.loc	1 40 9 is_stmt 0                @ main.c:40:9
	cbz	r0, .LBB3_28
.Ltmp94:
@ %bb.27:                               @   in Loop: Header=BB3_7 Depth=1
	@DEBUG_VALUE: prev_time <- $r11
	.loc	1 41 9 is_stmt 1                @ main.c:41:9
	mov	r1, r8
	bl	TEXT_SetText
.Ltmp95:
.LBB3_28:                               @   in Loop: Header=BB3_7 Depth=1
	@DEBUG_VALUE: prev_time <- $r11
	@DEBUG_VALUE: CLK_SysTickDelay:us <- 200000
	.file	13 "C:\\Users\\dinhl\\Documents\\Tesy\\EEET2481_A3_TETRISGAME" "./Library/StdDriver/inc\\clk.h"
	.loc	13 619 26                       @ ./Library/StdDriver/inc\clk.h:619:26
	movw	r0, :lower16:CyclesPerUs
	movt	r0, :upper16:CyclesPerUs
	ldr	r0, [r0]
	.loc	13 619 24 is_stmt 0             @ ./Library/StdDriver/inc\clk.h:619:24
	movw	r1, #3392
	movt	r1, #3
	muls	r0, r1, r0
	.loc	13 619 19                       @ ./Library/StdDriver/inc\clk.h:619:19
	str	r0, [r4, #4]
	.loc	13 621 19 is_stmt 1             @ ./Library/StdDriver/inc\clk.h:621:19
	movs	r0, #5
	.loc	13 620 19                       @ ./Library/StdDriver/inc\clk.h:620:19
	str	r7, [r4, #8]
	.loc	13 621 19                       @ ./Library/StdDriver/inc\clk.h:621:19
	str	r0, [r4]
.Ltmp96:
.LBB3_29:                               @   Parent Loop BB3_7 Depth=1
                                        @ =>  This Inner Loop Header: Depth=2
	@DEBUG_VALUE: CLK_SysTickDelay:us <- 200000
	@DEBUG_VALUE: prev_time <- $r11
	.loc	13 624 21                       @ ./Library/StdDriver/inc\clk.h:624:21
	ldr	r0, [r4]
	.loc	13 624 5 is_stmt 0              @ ./Library/StdDriver/inc\clk.h:624:5
	lsls	r0, r0, #15
	bmi	.LBB3_32
.Ltmp97:
@ %bb.30:                               @   in Loop: Header=BB3_29 Depth=2
	@DEBUG_VALUE: CLK_SysTickDelay:us <- 200000
	@DEBUG_VALUE: prev_time <- $r11
	.loc	13 624 21                       @ ./Library/StdDriver/inc\clk.h:624:21
	ldr	r0, [r4]
	.loc	13 624 5                        @ ./Library/StdDriver/inc\clk.h:624:5
	lsls	r0, r0, #15
	.loc	13 624 21                       @ ./Library/StdDriver/inc\clk.h:624:21
	itt	pl
	ldrpl	r0, [r4]
	.loc	13 624 5                        @ ./Library/StdDriver/inc\clk.h:624:5
	lslspl.w	r0, r0, #15
	bmi	.LBB3_32
.Ltmp98:
@ %bb.31:                               @   in Loop: Header=BB3_29 Depth=2
	@DEBUG_VALUE: CLK_SysTickDelay:us <- 200000
	@DEBUG_VALUE: prev_time <- $r11
	.loc	13 624 21                       @ ./Library/StdDriver/inc\clk.h:624:21
	ldr	r0, [r4]
	.loc	13 624 5                        @ ./Library/StdDriver/inc\clk.h:624:5
	lsls	r0, r0, #15
	bpl	.LBB3_29
.Ltmp99:
.LBB3_32:                               @   in Loop: Header=BB3_7 Depth=1
	@DEBUG_VALUE: CLK_SysTickDelay:us <- 200000
	@DEBUG_VALUE: prev_time <- $r11
	.loc	13 629 19 is_stmt 1             @ ./Library/StdDriver/inc\clk.h:629:19
	str	r7, [r4]
	b	.LBB3_7
.Ltmp100:
.LBB3_33:                               @   in Loop: Header=BB3_7 Depth=1
	.loc	13 0 19 is_stmt 0               @ ./Library/StdDriver/inc\clk.h:0:19
	movs	r7, #0
.Ltmp101:
	.loc	1 195 63 is_stmt 1              @ main.c:195:63
	bl	WM_GetDesktopWindow
.Ltmp102:
	mov	r1, r0
	.loc	1 195 21 is_stmt 0              @ main.c:195:21
	movw	r0, :lower16:ID_SCREEN_PLAY_RootInfo
	movt	r0, :upper16:ID_SCREEN_PLAY_RootInfo
	bl	APPW_CreateRoot
.Ltmp103:
	.loc	1 196 34 is_stmt 1              @ main.c:196:34
	movs	r0, #1
	strb.w	r0, [r9]
	.loc	1 198 21                        @ main.c:198:21
	mov.w	r0, #4096
	movs	r1, #0
	movs	r6, #0
	.loc	1 197 32                        @ main.c:197:32
	str	r7, [r5]
	.loc	1 198 21                        @ main.c:198:21
	bl	APPW_SetVarData
.Ltmp104:
	.loc	1 199 25                        @ main.c:199:25
	movw	r0, :lower16:hTextClock
	movt	r0, :upper16:hTextClock
	ldr	r0, [r0]
.Ltmp105:
	.loc	1 199 25 is_stmt 0              @ main.c:199:25
	cmp	r0, #0
.Ltmp106:
	.loc	1 199 37                        @ main.c:199:37
	it	ne
	blne	WM_DeleteWindow
.Ltmp107:
	.loc	1 200 66 is_stmt 1              @ main.c:200:66
	bl	WM_GetDesktopWindow
.Ltmp108:
	.loc	1 200 34 is_stmt 0              @ main.c:200:34
	str	r0, [sp]
	movs	r0, #2
	strd	r0, r6, [sp, #4]
	mov.w	r0, #352
	str	r0, [sp, #12]
	movs	r0, #160
	movs	r1, #133
	movs	r2, #70
	movs	r3, #21
	adr	r6, .LCPI3_1
	str	r6, [sp, #16]
	bl	TEXT_CreateEx
.Ltmp109:
	.loc	1 0 34                          @ main.c:0:34
	movw	r11, :lower16:hTextClock
	.loc	1 201 21 is_stmt 1              @ main.c:201:21
	movw	r1, :lower16:GUI_Font20_1
	movt	r11, :upper16:hTextClock
	movt	r1, :upper16:GUI_Font20_1
	.loc	1 200 32                        @ main.c:200:32
	str.w	r0, [r11]
	.loc	1 201 21                        @ main.c:201:21
	bl	TEXT_SetFont
.Ltmp110:
	.loc	1 202 39                        @ main.c:202:39
	ldr.w	r0, [r11]
	.loc	1 202 21 is_stmt 0              @ main.c:202:21
	movs	r1, #14
	bl	TEXT_SetTextAlign
.Ltmp111:
	.loc	1 39 30 is_stmt 1               @ main.c:39:30
	ldr	r2, [r5]
	.loc	1 39 5 is_stmt 0                @ main.c:39:5
	movw	r1, :lower16:.L.str
	mov	r0, r8
	movt	r1, :upper16:.L.str
	bl	__2sprintf
.Ltmp112:
	.loc	1 40 9 is_stmt 1                @ main.c:40:9
	ldr.w	r0, [r11]
.Ltmp113:
	.loc	1 40 9 is_stmt 0                @ main.c:40:9
	cbz	r0, .LBB3_35
@ %bb.34:                               @   in Loop: Header=BB3_7 Depth=1
.Ltmp114:
	.loc	1 41 9 is_stmt 1                @ main.c:41:9
	mov	r1, r8
	bl	TEXT_SetText
.Ltmp115:
.LBB3_35:                               @   in Loop: Header=BB3_7 Depth=1
	@DEBUG_VALUE: CLK_SysTickDelay:us <- 200000
	.loc	13 619 26                       @ ./Library/StdDriver/inc\clk.h:619:26
	movw	r0, :lower16:CyclesPerUs
	movt	r0, :upper16:CyclesPerUs
	ldr	r0, [r0]
	.loc	13 619 24 is_stmt 0             @ ./Library/StdDriver/inc\clk.h:619:24
	movw	r1, #3392
	movt	r1, #3
	muls	r0, r1, r0
	movw	r6, #18432
	.loc	13 619 19                       @ ./Library/StdDriver/inc\clk.h:619:19
	str	r0, [r4, #4]
	movs	r7, #0
	.loc	13 621 19 is_stmt 1             @ ./Library/StdDriver/inc\clk.h:621:19
	movs	r0, #5
	movt	r6, #16384
	.loc	13 620 19                       @ ./Library/StdDriver/inc\clk.h:620:19
	str	r7, [r4, #8]
	.loc	13 621 19                       @ ./Library/StdDriver/inc\clk.h:621:19
	str	r0, [r4]
.Ltmp116:
.LBB3_36:                               @   Parent Loop BB3_7 Depth=1
                                        @ =>  This Inner Loop Header: Depth=2
	@DEBUG_VALUE: CLK_SysTickDelay:us <- 200000
	.loc	13 624 21                       @ ./Library/StdDriver/inc\clk.h:624:21
	ldr	r0, [r4]
	.loc	13 624 5 is_stmt 0              @ ./Library/StdDriver/inc\clk.h:624:5
	lsls	r0, r0, #15
	bmi	.LBB3_39
.Ltmp117:
@ %bb.37:                               @   in Loop: Header=BB3_36 Depth=2
	@DEBUG_VALUE: CLK_SysTickDelay:us <- 200000
	.loc	13 624 21                       @ ./Library/StdDriver/inc\clk.h:624:21
	ldr	r0, [r4]
	.loc	13 624 5                        @ ./Library/StdDriver/inc\clk.h:624:5
	lsls	r0, r0, #15
	.loc	13 624 21                       @ ./Library/StdDriver/inc\clk.h:624:21
	itt	pl
	ldrpl	r0, [r4]
	.loc	13 624 5                        @ ./Library/StdDriver/inc\clk.h:624:5
	lslspl.w	r0, r0, #15
	bmi	.LBB3_39
.Ltmp118:
@ %bb.38:                               @   in Loop: Header=BB3_36 Depth=2
	@DEBUG_VALUE: CLK_SysTickDelay:us <- 200000
	.loc	13 624 21                       @ ./Library/StdDriver/inc\clk.h:624:21
	ldr	r0, [r4]
	.loc	13 624 5                        @ ./Library/StdDriver/inc\clk.h:624:5
	lsls	r0, r0, #15
	bpl	.LBB3_36
.Ltmp119:
.LBB3_39:                               @   in Loop: Header=BB3_7 Depth=1
	@DEBUG_VALUE: CLK_SysTickDelay:us <- 200000
	.loc	13 629 19 is_stmt 1             @ ./Library/StdDriver/inc\clk.h:629:19
	str	r7, [r4]
	b	.LBB3_9
.Ltmp120:
.LBB3_40:                               @   in Loop: Header=BB3_7 Depth=1
	.loc	1 211 69                        @ main.c:211:69
	bl	WM_GetDesktopWindow
.Ltmp121:
	mov	r1, r0
	.loc	1 211 21 is_stmt 0              @ main.c:211:21
	movw	r0, :lower16:ID_SCREEN_HIGH_SCORE_RootInfo
	movt	r0, :upper16:ID_SCREEN_HIGH_SCORE_RootInfo
	bl	APPW_CreateRoot
.Ltmp122:
	.loc	1 212 34 is_stmt 1              @ main.c:212:34
	movs	r0, #4
	strb.w	r0, [r9]
	b	.LBB3_7
.Ltmp123:
	.p2align	2
@ %bb.41:
	.loc	1 0 34 is_stmt 0                @ main.c:0:34
.LCPI3_0:
.L.str.1:
	.asciz	"C:/Users/dinhl/AppData/Local/AppWizard/Project/tetrisgame\000\000"
.LCPI3_1:
.L.str.2:
	.asciz	"00\000"
.LCPI3_2:
.L.str.3:
	.asciz	"hello\000\000"
.Lfunc_end3:
	.size	main, .Lfunc_end3-main
	.cfi_endproc
	.cantunwind
	.fnend
                                        @ -- End function
	.hidden	currentState                    @ @currentState
	.type	currentState,%object
	.section	.bss.currentState,"aw",%nobits
	.globl	currentState
currentState:
	.byte	0                               @ 0x0
	.size	currentState, 1

	.hidden	time_value                      @ @time_value
	.type	time_value,%object
	.section	.bss.time_value,"aw",%nobits
	.globl	time_value
	.p2align	2, 0x0
time_value:
	.long	0                               @ 0x0
	.size	time_value, 4

	.hidden	hTextClock                      @ @hTextClock
	.type	hTextClock,%object
	.section	.bss.hTextClock,"aw",%nobits
	.globl	hTextClock
	.p2align	2, 0x0
hTextClock:
	.long	0                               @ 0x0
	.size	hTextClock, 4

	.hidden	timeStr                         @ @timeStr
	.type	timeStr,%object
	.section	.bss.timeStr,"aw",%nobits
	.globl	timeStr
timeStr:
	.zero	6
	.size	timeStr, 6

	.type	.L.str,%object                  @ @.str
	.section	.rodata.str1.1,"aMS",%progbits,1
.L.str:
	.asciz	"%02d"
	.size	.L.str, 5

	.hidden	g_enable_Touch                  @ @g_enable_Touch
	.type	g_enable_Touch,%object
	.section	.bss.g_enable_Touch,"aw",%nobits
	.globl	g_enable_Touch
	.p2align	2, 0x0
g_enable_Touch:
	.long	0                               @ 0x0
	.size	g_enable_Touch, 4

	.type	__ARM_use_no_argv,%object       @ @__ARM_use_no_argv
	.section	.ARM.use_no_argv,"awR",%progbits,unique,1
	.globl	__ARM_use_no_argv
	.p2align	2, 0x0
__ARM_use_no_argv:
	.long	1                               @ 0x1
	.size	__ARM_use_no_argv, 4

	.hidden	_printf_percent
	.hidden	_printf_flags
	.hidden	_printf_widthprec
	.hidden	_printf_pre_padding
	.hidden	_printf_d
	.hidden	_printf_int_dec
	.section	".note.GNU-stack","",%progbits
	.eabi_attribute	30, 1	@ Tag_ABI_optimization_goals
	.ARM_attribute	16, 1	@ Tag_AV_eba