	.text
	.syntax unified
	.eabi_attribute	67, "2.09"	@ Tag_conformance
	.cpu	cortex-m4
	.eabi_attribute	6, 13	@ Tag_CPU_arch
	.eabi_attribute	7, 77	@ Tag_CPU_arch_profile
	.eabi_attribute	8, 0	@ Tag_ARM_ISA_use
	.eabi_attribute	9, 2	@ Tag_THUMB_ISA_use
	.fpu	fpv4-sp-d16
	.eabi_attribute	27, 1	@ Tag_ABI_HardFP_use
	.eabi_attribute	36, 1	@ Tag_FP_HP_extension
	.eabi_attribute	34, 1	@ Tag_CPU_unaligned_access
	.eabi_attribute	17, 1	@ Tag_ABI_PCS_GOT_use
	.eabi_attribute	20, 2	@ Tag_ABI_FP_denormal
	.eabi_attribute	21, 0	@ Tag_ABI_FP_exceptions
	.eabi_attribute	23, 1	@ Tag_ABI_FP_number_model
	.eabi_attribute	24, 1	@ Tag_ABI_align_needed
	.eabi_attribute	25, 1	@ Tag_ABI_align_preserved
	.eabi_attribute	28, 1	@ Tag_ABI_VFP_args
	.eabi_attribute	38, 1	@ Tag_ABI_FP_16bit_format
	.eabi_attribute	18, 2	@ Tag_ABI_PCS_wchar_t
	.eabi_attribute	26, 1	@ Tag_ABI_enum_size
	.eabi_attribute	14, 0	@ Tag_ABI_PCS_R9_use
	.file	"Resource.c"
	.file	1 "C:\\Users\\dinhl\\Documents\\Tesy\\EEET2481_A3_TETRISGAME" "./Library/emWin/Include\\GUI_Type.h"
	.file	2 "C:\\Users\\dinhl\\Documents\\Tesy\\EEET2481_A3_TETRISGAME" "./Library/emWin/Include\\AppWizard.h"
	.file	3 "C:\\Users\\dinhl\\Documents\\Tesy\\EEET2481_A3_TETRISGAME" "Application/Source/Generated/Resource.c"
	.file	4 "C:\\Users\\dinhl\\Documents\\Tesy\\EEET2481_A3_TETRISGAME" "./Library/emWin/Include\\WM.h"
	.file	5 "C:\\Users\\dinhl\\Documents\\Tesy\\EEET2481_A3_TETRISGAME" "./Library/emWin/Include\\LCD.h"
	.section	.text.APPW__GetTextInit,"ax",%progbits
	.hidden	APPW__GetTextInit               @ -- Begin function APPW__GetTextInit
	.globl	APPW__GetTextInit
	.p2align	2
	.type	APPW__GetTextInit,%function
	.code	16                              @ @APPW__GetTextInit
	.thumb_func
APPW__GetTextInit:
.Lfunc_begin0:
	.fnstart
	.cfi_sections .debug_frame
	.cfi_startproc
@ %bb.0:
	@DEBUG_VALUE: APPW__GetTextInit:ppTextInit <- $r0
	.loc	3 140 15 prologue_end           @ Application/Source/Generated/Resource.c:140:15
	movw	r1, :lower16:_TextInit
	movt	r1, :upper16:_TextInit
	str	r1, [r0]
	.loc	3 141 1                         @ Application/Source/Generated/Resource.c:141:1
	bx	lr
.Ltmp0:
.Lfunc_end0:
	.size	APPW__GetTextInit, .Lfunc_end0-APPW__GetTextInit
	.cfi_endproc
	.cantunwind
	.fnend
                                        @ -- End function
	.section	.text.APPW__GetResource,"ax",%progbits
	.hidden	APPW__GetResource               @ -- Begin function APPW__GetResource
	.globl	APPW__GetResource
	.p2align	2
	.type	APPW__GetResource,%function
	.code	16                              @ @APPW__GetResource
	.thumb_func
APPW__GetResource:
.Lfunc_begin1:
	.loc	3 151 0                         @ Application/Source/Generated/Resource.c:151:0
	.fnstart
	.cfi_startproc
@ %bb.0:
	@DEBUG_VALUE: APPW__GetResource:pppRootInfo <- $r0
	@DEBUG_VALUE: APPW__GetResource:pNumScreens <- $r1
	@DEBUG_VALUE: APPW__GetResource:ppaVarList <- $r2
	@DEBUG_VALUE: APPW__GetResource:pNumVars <- $r3
	.save	{r4, r5, r6, r7, lr}
	push	{r4, r5, r6, r7, lr}
	.cfi_def_cfa_offset 20
	.cfi_offset lr, -4
	.cfi_offset r7, -8
	.cfi_offset r6, -12
	.cfi_offset r5, -16
	.cfi_offset r4, -20
.Ltmp1:
	@DEBUG_VALUE: APPW__GetResource:ppaScrollerDef <- [DW_OP_plus_uconst 20] [$sp+0]
	@DEBUG_VALUE: APPW__GetResource:pNumScrollers <- [DW_OP_plus_uconst 24] [$sp+0]
	@DEBUG_VALUE: APPW__GetResource:pppDrawingList <- [DW_OP_plus_uconst 28] [$sp+0]
	@DEBUG_VALUE: APPW__GetResource:pNumDrawings <- [DW_OP_plus_uconst 32] [$sp+0]
	@DEBUG_VALUE: APPW__GetResource:pCreateFlags <- [DW_OP_plus_uconst 36] [$sp+0]
	.loc	3 152 19 prologue_end           @ Application/Source/Generated/Resource.c:152:19
	movw	r7, :lower16:_apRootList
	movt	r7, :upper16:_apRootList
	str	r7, [r0]
	.loc	3 153 19                        @ Application/Source/Generated/Resource.c:153:19
	movw	r0, :lower16:_aVarList
.Ltmp2:
	@DEBUG_VALUE: APPW__GetResource:pppRootInfo <- [DW_OP_LLVM_entry_value 1] $r0
	movt	r0, :upper16:_aVarList
	ldr.w	r12, [sp, #36]
	ldrd	r5, lr, [sp, #28]
	ldrd	r6, r4, [sp, #20]
	str	r0, [r2]
	movs	r2, #4
.Ltmp3:
	@DEBUG_VALUE: APPW__GetResource:ppaVarList <- [DW_OP_LLVM_entry_value 1] $r2
	.loc	3 0 19 is_stmt 0                @ Application/Source/Generated/Resource.c:0:19
	movs	r0, #0
	.loc	3 156 19 is_stmt 1              @ Application/Source/Generated/Resource.c:156:19
	str	r2, [r1]
	movs	r1, #3
.Ltmp4:
	@DEBUG_VALUE: APPW__GetResource:pNumScreens <- [DW_OP_LLVM_entry_value 1] $r1
	.loc	3 154 19                        @ Application/Source/Generated/Resource.c:154:19
	str	r0, [r6]
	.loc	3 155 19                        @ Application/Source/Generated/Resource.c:155:19
	str	r0, [r5]
	.loc	3 157 19                        @ Application/Source/Generated/Resource.c:157:19
	str	r1, [r3]
	.loc	3 158 19                        @ Application/Source/Generated/Resource.c:158:19
	str	r0, [r4]
	.loc	3 159 19                        @ Application/Source/Generated/Resource.c:159:19
	str.w	r0, [lr]
	.loc	3 160 19                        @ Application/Source/Generated/Resource.c:160:19
	str.w	r0, [r12]
	.loc	3 161 1 epilogue_begin          @ Application/Source/Generated/Resource.c:161:1
	pop	{r4, r5, r6, r7, pc}
.Ltmp5:
.Lfunc_end1:
	.size	APPW__GetResource, .Lfunc_end1-APPW__GetResource
	.cfi_endproc
	.cantunwind
	.fnend
                                        @ -- End function
	.type	_TextInit,%object               @ @_TextInit
	.section	.rodata._TextInit,"a",%progbits
	.p2align	2, 0x0
_TextInit:
	.long	_apLang
	.long	1                               @ 0x1
	.size	_TextInit, 8

	.type	_apRootList,%object             @ @_apRootList
	.section	.data._apRootList,"aw",%progbits
	.p2align	2, 0x0
_apRootList:
	.long	ID_SCREEN_WELCOME_RootInfo
	.long	ID_SCREEN_PLAY_RootInfo
	.long	ID_GAME_OVER_RootInfo
	.long	ID_SCREEN_HIGH_SCORE_RootInfo
	.size	_apRootList, 16

	.type	_aVarList,%object               @ @_aVarList
	.section	.data._aVarList,"aw",%progbits
	.p2align	2, 0x0
_aVarList:
	.short	4096                            @ 0x1000
	.byte	0                               @ 0x0
	.zero	1
	.long	0                               @ 0x0
	.long	0
	.short	4097                            @ 0x1001
	.byte	0                               @ 0x0
	.zero	1
	.long	1                               @ 0x1
	.long	_Calc_ID_VAR_01
	.short	4098                            @ 0x1002
	.byte	0                               @ 0x0
	.zero	1
	.long	4294967295                      @ 0xffffffff
	.long	_Calc_ID_VAR_02
	.size	_aVarList, 36

	.hidden	APPW__aFont                     @ @APPW__aFont
	.type	APPW__aFont,%object
	.section	.bss.APPW__aFont,"aw",%nobits
	.globl	APPW__aFont
	.p2align	2, 0x0
APPW__aFont:
	.zero	136
	.size	APPW__aFont, 136

	.type	_apLang,%object                 @ @_apLang
	.section	.data._apLang,"aw",%progbits
	.p2align	2, 0x0
_apLang:
	.long	acAPPW_Language_0
	.size	_apLang, 4

	.type	_Calc_ID_VAR_01,%object         @ @_Calc_ID_VAR_01
	.section	.rodata._Calc_ID_VAR_01,"a",%progbits
	.p2align	2, 0x0
_Calc_ID_VAR_01:
	.long	.L.str
	.long	2                               @ 0x2
	.long	_aItem_ID_VAR_01
	.long	_aCalc_ID_VAR_01
	.size	_Calc_ID_VAR_01, 16

	.type	_Calc_ID_VAR_02,%object         @ @_Calc_ID_VAR_02
	.section	.rodata._Calc_ID_VAR_02,"a",%progbits
	.p2align	2, 0x0
_Calc_ID_VAR_02:
	.long	.L.str
	.long	2                               @ 0x2
	.long	_aItem_ID_VAR_02
	.long	_aCalc_ID_VAR_02
	.size	_Calc_ID_VAR_02, 16

	.type	.L.str,%object                  @ @.str
	.section	.rodata.str1.1,"aMS",%progbits,1
.L.str:
	.asciz	"A+B"
	.size	.L.str, 4

	.type	_aItem_ID_VAR_01,%object        @ @_aItem_ID_VAR_01
	.section	.rodata._aItem_ID_VAR_01,"a",%progbits
	.p2align	2, 0x0
_aItem_ID_VAR_01:
	.long	1                               @ 0x1
	.short	0                               @ 0x0
	.byte	5                               @ 0x5
	.byte	0                               @ 0x0
	.long	4096                            @ 0x1000
	.short	0                               @ 0x0
	.byte	1                               @ 0x1
	.byte	0                               @ 0x0
	.size	_aItem_ID_VAR_01, 16

	.type	_aCalc_ID_VAR_01,%object        @ @_aCalc_ID_VAR_01
	.section	.bss._aCalc_ID_VAR_01,"aw",%nobits
	.p2align	2, 0x0
_aCalc_ID_VAR_01:
	.zero	8
	.size	_aCalc_ID_VAR_01, 8

	.type	_aItem_ID_VAR_02,%object        @ @_aItem_ID_VAR_02
	.section	.rodata._aItem_ID_VAR_02,"a",%progbits
	.p2align	2, 0x0
_aItem_ID_VAR_02:
	.long	4294967295                      @ 0xffffffff
	.short	0                               @ 0x0
	.byte	5                               @ 0x5
	.byte	0                               @ 0x0
	.long	4096                            @ 0x1000
	.short	65535                           @ 0xffff
	.byte	1                               @ 0x1
	.byte	0                               @ 0x0
	.size	_aItem_ID_VAR_02, 16

	.type	_aCalc_ID_VAR_02,%object        @ @_aCalc_ID_VAR_02
	.section	.bss._aCalc_ID_VAR_02,"aw",%nobits
	.p2align	2, 0x0
_aCalc_ID_VAR_02:
	.zero	8
	.size	_aCalc_ID_VAR_02, 8

	.section	".note.GNU-stack","",%progbits
	.eabi_attribute	30, 1	@ Tag_ABI_optimization_goals
	.ARM_attribute	16, 1	@ Tag_AV_eba