	.text
	.syntax unified
	.eabi_attribute	67, "2.09"	@ Tag_conformance
	.cpu	cortex-m4
	.eabi_attribute	6, 13	@ Tag_CPU_arch
	.eabi_attribute	7, 77	@ Tag_CPU_arch_profile
	.eabi_attribute	8, 0	@ Tag_ARM_ISA_use
	.eabi_attribute	9, 2	@ Tag_THUMB_ISA_use
	.fpu	fpv4-sp-d16
	.eabi_attribute	27, 1	@ Tag_ABI_HardFP_use
	.eabi_attribute	36, 1	@ Tag_FP_HP_extension
	.eabi_attribute	34, 1	@ Tag_CPU_unaligned_access
	.eabi_attribute	17, 1	@ Tag_ABI_PCS_GOT_use
	.eabi_attribute	20, 2	@ Tag_ABI_FP_denormal
	.eabi_attribute	21, 0	@ Tag_ABI_FP_exceptions
	.eabi_attribute	23, 1	@ Tag_ABI_FP_number_model
	.eabi_attribute	24, 1	@ Tag_ABI_align_needed
	.eabi_attribute	25, 1	@ Tag_ABI_align_preserved
	.eabi_attribute	28, 1	@ Tag_ABI_VFP_args
	.eabi_attribute	38, 1	@ Tag_ABI_FP_16bit_format
	.eabi_attribute	18, 2	@ Tag_ABI_PCS_wchar_t
	.eabi_attribute	26, 1	@ Tag_ABI_enum_size
	.eabi_attribute	14, 0	@ Tag_ABI_PCS_R9_use
	.file	"timer.c"
	.file	1 "C:\\Users\\dinhl" "AppData\\Local\\Keil_v5\\ARM\\ARMCLANG\\bin\\..\\include\\stdint.h"
	.file	2 "C:\\Users\\dinhl\\Documents\\Tesy\\EEET2481_A3_TETRISGAME" "./Library/Device/Nuvoton/M480/Include\\timer_reg.h"
	.file	3 "C:\\Users\\dinhl\\Documents\\Tesy\\EEET2481_A3_TETRISGAME" "./Library/Device/Nuvoton/M480/Include\\clk_reg.h"
	.section	.text.TIMER_Open,"ax",%progbits
	.hidden	TIMER_Open                      @ -- Begin function TIMER_Open
	.globl	TIMER_Open
	.p2align	2
	.type	TIMER_Open,%function
	.code	16                              @ @TIMER_Open
	.thumb_func
TIMER_Open:
.Lfunc_begin0:
	.file	4 "C:\\Users\\dinhl\\Documents\\Tesy\\EEET2481_A3_TETRISGAME" "Library/StdDriver/src/timer.c"
	.loc	4 42 0                          @ Library/StdDriver/src/timer.c:42:0
	.fnstart
	.cfi_sections .debug_frame
	.cfi_startproc
@ %bb.0:
	@DEBUG_VALUE: TIMER_Open:timer <- $r0
	@DEBUG_VALUE: TIMER_Open:u32Mode <- $r1
	@DEBUG_VALUE: TIMER_Open:u32Freq <- $r2
	.save	{r4, r5, r6, lr}
	push	{r4, r5, r6, lr}
	.cfi_def_cfa_offset 16
	.cfi_offset lr, -4
	.cfi_offset r6, -8
	.cfi_offset r5, -12
	.cfi_offset r4, -16
	mov	r4, r0
.Ltmp0:
	@DEBUG_VALUE: TIMER_Open:timer <- $r4
	@DEBUG_VALUE: TIMER_Open:timer <- $r4
	movs	r0, #0
	movt	r0, #16389
.Ltmp1:
	@DEBUG_VALUE: TIMER_GetModuleClock:timer <- $r4
	.loc	4 264 8 prologue_end            @ Library/StdDriver/src/timer.c:264:8
	cmp	r4, r0
	movw	r0, #532
	mov	r6, r2
.Ltmp2:
	@DEBUG_VALUE: TIMER_Open:u32Freq <- $r6
	@DEBUG_VALUE: TIMER_Open:u32Freq <- $r6
	.loc	4 0 8 is_stmt 0                 @ Library/StdDriver/src/timer.c:0:8
	mov	r5, r1
.Ltmp3:
	@DEBUG_VALUE: TIMER_Open:u32Mode <- $r5
	@DEBUG_VALUE: TIMER_Open:u32Mode <- $r5
	movt	r0, #16384
	.loc	4 264 8                         @ Library/StdDriver/src/timer.c:264:8
	beq	.LBB0_3
.Ltmp4:
@ %bb.1:
	@DEBUG_VALUE: TIMER_Open:u32Mode <- $r5
	@DEBUG_VALUE: TIMER_Open:u32Freq <- $r6
	@DEBUG_VALUE: TIMER_GetModuleClock:timer <- $r4
	@DEBUG_VALUE: TIMER_Open:timer <- $r4
	.loc	4 0 8                           @ Library/StdDriver/src/timer.c:0:8
	movw	r1, #4096
.Ltmp5:
	ldr	r0, [r0]
	movt	r1, #16389
.Ltmp6:
	.loc	4 268 13 is_stmt 1              @ Library/StdDriver/src/timer.c:268:13
	cmp	r4, r1
	beq	.LBB0_4
.Ltmp7:
@ %bb.2:
	@DEBUG_VALUE: TIMER_Open:u32Mode <- $r5
	@DEBUG_VALUE: TIMER_Open:u32Freq <- $r6
	@DEBUG_VALUE: TIMER_GetModuleClock:timer <- $r4
	@DEBUG_VALUE: TIMER_Open:timer <- $r4
	.loc	4 0 13 is_stmt 0                @ Library/StdDriver/src/timer.c:0:13
	movw	r1, #256
	movt	r1, #16389
	.loc	4 268 13                        @ Library/StdDriver/src/timer.c:268:13
	cmp	r4, r1
.Ltmp8:
	.loc	4 278 59 is_stmt 1              @ Library/StdDriver/src/timer.c:278:59
	ite	ne
	lsrne	r0, r0, #20
.Ltmp9:
	.loc	4 270 59                        @ Library/StdDriver/src/timer.c:270:59
	lsreq	r0, r0, #12
.Ltmp10:
	@DEBUG_VALUE: TIMER_GetModuleClock:u32Src <- [DW_OP_constu 7, DW_OP_and, DW_OP_stack_value] $r0
	.loc	4 0 59 is_stmt 0                @ Library/StdDriver/src/timer.c:0:59
	b	.LBB0_5
.Ltmp11:
.LBB0_3:
	@DEBUG_VALUE: TIMER_Open:u32Mode <- $r5
	@DEBUG_VALUE: TIMER_Open:u32Freq <- $r6
	@DEBUG_VALUE: TIMER_GetModuleClock:timer <- $r4
	@DEBUG_VALUE: TIMER_Open:timer <- $r4
	.loc	4 266 24 is_stmt 1              @ Library/StdDriver/src/timer.c:266:24
	ldr	r0, [r0]
	.loc	4 266 59 is_stmt 0              @ Library/StdDriver/src/timer.c:266:59
	lsrs	r0, r0, #8
.Ltmp12:
	@DEBUG_VALUE: TIMER_GetModuleClock:u32Src <- [DW_OP_constu 7, DW_OP_and, DW_OP_stack_value] $r0
	.loc	4 0 59                          @ Library/StdDriver/src/timer.c:0:59
	b	.LBB0_5
.Ltmp13:
.LBB0_4:
	@DEBUG_VALUE: TIMER_Open:u32Mode <- $r5
	@DEBUG_VALUE: TIMER_Open:u32Freq <- $r6
	@DEBUG_VALUE: TIMER_GetModuleClock:timer <- $r4
	@DEBUG_VALUE: TIMER_Open:timer <- $r4
	.loc	4 274 59 is_stmt 1              @ Library/StdDriver/src/timer.c:274:59
	lsrs	r0, r0, #16
.Ltmp14:
	@DEBUG_VALUE: TIMER_GetModuleClock:u32Src <- [DW_OP_constu 7, DW_OP_and, DW_OP_stack_value] $r0
.LBB0_5:
	@DEBUG_VALUE: TIMER_GetModuleClock:u32Src <- [DW_OP_constu 7, DW_OP_and, DW_OP_stack_value] $r0
	@DEBUG_VALUE: TIMER_Open:u32Mode <- $r5
	@DEBUG_VALUE: TIMER_Open:u32Freq <- $r6
	@DEBUG_VALUE: TIMER_GetModuleClock:timer <- $r4
	@DEBUG_VALUE: TIMER_Open:timer <- $r4
	.loc	4 0 0 is_stmt 0                 @ Library/StdDriver/src/timer.c:0:0
	and	r0, r0, #7
.Ltmp15:
	@DEBUG_VALUE: TIMER_GetModuleClock:u32Src <- $r0
	.loc	4 281 8 is_stmt 1               @ Library/StdDriver/src/timer.c:281:8
	cmp	r0, #2
	bne	.LBB0_8
.Ltmp16:
@ %bb.6:
	@DEBUG_VALUE: TIMER_GetModuleClock:u32Src <- $r0
	@DEBUG_VALUE: TIMER_Open:u32Mode <- $r5
	@DEBUG_VALUE: TIMER_Open:u32Freq <- $r6
	@DEBUG_VALUE: TIMER_GetModuleClock:timer <- $r4
	@DEBUG_VALUE: TIMER_Open:timer <- $r4
	.loc	4 0 8 is_stmt 0                 @ Library/StdDriver/src/timer.c:0:8
	movw	r1, #256
.Ltmp17:
	.loc	4 283 30 is_stmt 1              @ Library/StdDriver/src/timer.c:283:30
	orr	r0, r4, #256
.Ltmp18:
	.loc	4 0 30 is_stmt 0                @ Library/StdDriver/src/timer.c:0:30
	movt	r1, #16389
	.loc	4 283 30                        @ Library/StdDriver/src/timer.c:283:30
	cmp	r0, r1
	bne	.LBB0_10
.Ltmp19:
@ %bb.7:
	@DEBUG_VALUE: TIMER_Open:u32Mode <- $r5
	@DEBUG_VALUE: TIMER_Open:u32Freq <- $r6
	@DEBUG_VALUE: TIMER_GetModuleClock:timer <- $r4
	@DEBUG_VALUE: TIMER_Open:timer <- $r4
	.loc	4 285 22 is_stmt 1              @ Library/StdDriver/src/timer.c:285:22
	bl	CLK_GetPCLK0Freq
.Ltmp20:
	@DEBUG_VALUE: TIMER_GetModuleClock:u32Clk <- $r0
	@DEBUG_VALUE: TIMER_Open:u32Clk <- $r0
	@DEBUG_VALUE: TIMER_Open:u32Cmpr <- 0
	@DEBUG_VALUE: TIMER_Open:u32Prescale <- 0
	.loc	4 47 8                          @ Library/StdDriver/src/timer.c:47:8
	cmp.w	r6, r0, lsr #1
	bhi	.LBB0_9
	b	.LBB0_11
.Ltmp21:
.LBB0_8:
	@DEBUG_VALUE: TIMER_GetModuleClock:u32Src <- $r0
	@DEBUG_VALUE: TIMER_Open:u32Mode <- $r5
	@DEBUG_VALUE: TIMER_Open:u32Freq <- $r6
	@DEBUG_VALUE: TIMER_GetModuleClock:timer <- $r4
	@DEBUG_VALUE: TIMER_Open:timer <- $r4
	.loc	4 294 18                        @ Library/StdDriver/src/timer.c:294:18
	movw	r1, :lower16:.L__const.TIMER_GetModuleClock.au32Clk
	movt	r1, :upper16:.L__const.TIMER_GetModuleClock.au32Clk
	ldr.w	r0, [r1, r0, lsl #2]
.Ltmp22:
	@DEBUG_VALUE: TIMER_GetModuleClock:u32Clk <- $r0
	@DEBUG_VALUE: TIMER_Open:u32Clk <- $r0
	@DEBUG_VALUE: TIMER_Open:u32Cmpr <- 0
	@DEBUG_VALUE: TIMER_Open:u32Prescale <- 0
	.loc	4 47 8                          @ Library/StdDriver/src/timer.c:47:8
	cmp.w	r6, r0, lsr #1
	bls	.LBB0_11
.Ltmp23:
.LBB0_9:
	@DEBUG_VALUE: TIMER_Open:u32Prescale <- 0
	@DEBUG_VALUE: TIMER_Open:u32Cmpr <- 0
	@DEBUG_VALUE: TIMER_Open:u32Clk <- $r0
	@DEBUG_VALUE: TIMER_GetModuleClock:u32Clk <- $r0
	@DEBUG_VALUE: TIMER_Open:u32Mode <- $r5
	@DEBUG_VALUE: TIMER_Open:u32Freq <- $r6
	@DEBUG_VALUE: TIMER_GetModuleClock:timer <- $r4
	@DEBUG_VALUE: TIMER_Open:timer <- $r4
	.loc	4 0 8 is_stmt 0                 @ Library/StdDriver/src/timer.c:0:8
	movs	r2, #0
	movs	r1, #2
	b	.LBB0_12
.Ltmp24:
.LBB0_10:
	@DEBUG_VALUE: TIMER_Open:u32Mode <- $r5
	@DEBUG_VALUE: TIMER_Open:u32Freq <- $r6
	@DEBUG_VALUE: TIMER_GetModuleClock:timer <- $r4
	@DEBUG_VALUE: TIMER_Open:timer <- $r4
	.loc	4 289 22 is_stmt 1              @ Library/StdDriver/src/timer.c:289:22
	bl	CLK_GetPCLK1Freq
.Ltmp25:
	@DEBUG_VALUE: TIMER_GetModuleClock:u32Clk <- $r0
	@DEBUG_VALUE: TIMER_Open:u32Clk <- $r0
	@DEBUG_VALUE: TIMER_Open:u32Cmpr <- 0
	@DEBUG_VALUE: TIMER_Open:u32Prescale <- 0
	.loc	4 47 8                          @ Library/StdDriver/src/timer.c:47:8
	cmp.w	r6, r0, lsr #1
	bhi	.LBB0_9
.Ltmp26:
.LBB0_11:
	@DEBUG_VALUE: TIMER_Open:u32Prescale <- 0
	@DEBUG_VALUE: TIMER_Open:u32Cmpr <- 0
	@DEBUG_VALUE: TIMER_Open:u32Clk <- $r0
	@DEBUG_VALUE: TIMER_Open:u32Mode <- $r5
	@DEBUG_VALUE: TIMER_Open:u32Freq <- $r6
	@DEBUG_VALUE: TIMER_Open:timer <- $r4
	.loc	4 53 26                         @ Library/StdDriver/src/timer.c:53:26
	udiv	r1, r0, r6
.Ltmp27:
	@DEBUG_VALUE: TIMER_Open:u32Prescale <- [DW_OP_constu 24, DW_OP_shr, DW_OP_stack_value] $r1
	@DEBUG_VALUE: TIMER_Open:u32Cmpr <- $r1
	.loc	4 54 32                         @ Library/StdDriver/src/timer.c:54:32
	lsrs	r2, r1, #24
.Ltmp28:
	@DEBUG_VALUE: TIMER_Open:u32Prescale <- $r2
	.loc	4 56 46                         @ Library/StdDriver/src/timer.c:56:46
	itte	ne
	addne	r3, r2, #1
	.loc	4 56 31 is_stmt 0               @ Library/StdDriver/src/timer.c:56:31
	udivne	r1, r1, r3
.Ltmp29:
	.loc	4 0 31                          @ Library/StdDriver/src/timer.c:0:31
	moveq	r2, #0
.Ltmp30:
.LBB0_12:
	@DEBUG_VALUE: TIMER_Open:u32Clk <- $r0
	@DEBUG_VALUE: TIMER_Open:u32Mode <- $r5
	@DEBUG_VALUE: TIMER_Open:u32Freq <- $r6
	@DEBUG_VALUE: TIMER_Open:timer <- $r4
	@DEBUG_VALUE: TIMER_Open:u32Cmpr <- $r1
	@DEBUG_VALUE: TIMER_Open:u32Prescale <- $r2
	.loc	4 59 26 is_stmt 1               @ Library/StdDriver/src/timer.c:59:26
	orr.w	r3, r2, r5
	.loc	4 62 45                         @ Library/StdDriver/src/timer.c:62:45
	adds	r2, #1
.Ltmp31:
	.loc	4 62 30 is_stmt 0               @ Library/StdDriver/src/timer.c:62:30
	muls	r2, r1, r2
	.loc	4 62 19                         @ Library/StdDriver/src/timer.c:62:19
	udiv	r0, r0, r2
.Ltmp32:
	.loc	4 59 16 is_stmt 1               @ Library/StdDriver/src/timer.c:59:16
	str	r3, [r4]
	.loc	4 60 16                         @ Library/StdDriver/src/timer.c:60:16
	str	r1, [r4, #4]
	.loc	4 62 5 epilogue_begin           @ Library/StdDriver/src/timer.c:62:5
	pop	{r4, r5, r6, pc}
.Ltmp33:
.Lfunc_end0:
	.size	TIMER_Open, .Lfunc_end0-TIMER_Open
	.cfi_endproc
	.cantunwind
	.fnend
                                        @ -- End function
	.section	.text.TIMER_GetModuleClock,"ax",%progbits
	.hidden	TIMER_GetModuleClock            @ -- Begin function TIMER_GetModuleClock
	.globl	TIMER_GetModuleClock
	.p2align	2
	.type	TIMER_GetModuleClock,%function
	.code	16                              @ @TIMER_GetModuleClock
	.thumb_func
TIMER_GetModuleClock:
.Lfunc_begin1:
	.loc	4 260 0                         @ Library/StdDriver/src/timer.c:260:0
	.fnstart
	.cfi_startproc
@ %bb.0:
	@DEBUG_VALUE: TIMER_GetModuleClock:timer <- $r0
	movs	r1, #0
	movt	r1, #16389
.Ltmp34:
	.loc	4 264 8 prologue_end            @ Library/StdDriver/src/timer.c:264:8
	cmp	r0, r1
	movw	r1, #532
	movt	r1, #16384
	beq	.LBB1_3
.Ltmp35:
@ %bb.1:
	@DEBUG_VALUE: TIMER_GetModuleClock:timer <- $r0
	.loc	4 0 8 is_stmt 0                 @ Library/StdDriver/src/timer.c:0:8
	movw	r2, #4096
.Ltmp36:
	ldr	r1, [r1]
	movt	r2, #16389
.Ltmp37:
	.loc	4 268 13 is_stmt 1              @ Library/StdDriver/src/timer.c:268:13
	cmp	r0, r2
	beq	.LBB1_4
.Ltmp38:
@ %bb.2:
	@DEBUG_VALUE: TIMER_GetModuleClock:timer <- $r0
	.loc	4 0 13 is_stmt 0                @ Library/StdDriver/src/timer.c:0:13
	movw	r2, #256
	movt	r2, #16389
	.loc	4 268 13                        @ Library/StdDriver/src/timer.c:268:13
	cmp	r0, r2
.Ltmp39:
	.loc	4 278 59 is_stmt 1              @ Library/StdDriver/src/timer.c:278:59
	ite	ne
	lsrne	r1, r1, #20
.Ltmp40:
	.loc	4 270 59                        @ Library/StdDriver/src/timer.c:270:59
	lsreq	r1, r1, #12
.Ltmp41:
	@DEBUG_VALUE: TIMER_GetModuleClock:u32Src <- [DW_OP_constu 7, DW_OP_and, DW_OP_stack_value] $r1
	.loc	4 0 59 is_stmt 0                @ Library/StdDriver/src/timer.c:0:59
	b	.LBB1_5
.Ltmp42:
.LBB1_3:
	@DEBUG_VALUE: TIMER_GetModuleClock:timer <- $r0
	.loc	4 266 24 is_stmt 1              @ Library/StdDriver/src/timer.c:266:24
	ldr	r1, [r1]
	.loc	4 266 59 is_stmt 0              @ Library/StdDriver/src/timer.c:266:59
	lsrs	r1, r1, #8
.Ltmp43:
	@DEBUG_VALUE: TIMER_GetModuleClock:u32Src <- [DW_OP_constu 7, DW_OP_and, DW_OP_stack_value] $r1
	.loc	4 0 59                          @ Library/StdDriver/src/timer.c:0:59
	b	.LBB1_5
.Ltmp44:
.LBB1_4:
	@DEBUG_VALUE: TIMER_GetModuleClock:timer <- $r0
	.loc	4 274 59 is_stmt 1              @ Library/StdDriver/src/timer.c:274:59
	lsrs	r1, r1, #16
.Ltmp45:
	@DEBUG_VALUE: TIMER_GetModuleClock:u32Src <- [DW_OP_constu 7, DW_OP_and, DW_OP_stack_value] $r1
.LBB1_5:
	@DEBUG_VALUE: TIMER_GetModuleClock:u32Src <- [DW_OP_constu 7, DW_OP_and, DW_OP_stack_value] $r1
	@DEBUG_VALUE: TIMER_GetModuleClock:timer <- $r0
	.loc	4 0 0 is_stmt 0                 @ Library/StdDriver/src/timer.c:0:0
	and	r1, r1, #7
.Ltmp46:
	@DEBUG_VALUE: TIMER_GetModuleClock:u32Src <- $r1
	.loc	4 281 8 is_stmt 1               @ Library/StdDriver/src/timer.c:281:8
	cmp	r1, #2
	bne	.LBB1_8
.Ltmp47:
@ %bb.6:
	@DEBUG_VALUE: TIMER_GetModuleClock:u32Src <- $r1
	@DEBUG_VALUE: TIMER_GetModuleClock:timer <- $r0
	.loc	4 0 8 is_stmt 0                 @ Library/StdDriver/src/timer.c:0:8
	movw	r1, #256
.Ltmp48:
	.loc	4 283 30 is_stmt 1              @ Library/StdDriver/src/timer.c:283:30
	orr	r0, r0, #256
.Ltmp49:
	@DEBUG_VALUE: TIMER_GetModuleClock:timer <- [DW_OP_LLVM_entry_value 1] $r0
	.loc	4 0 30 is_stmt 0                @ Library/StdDriver/src/timer.c:0:30
	movt	r1, #16389
	.loc	4 283 30                        @ Library/StdDriver/src/timer.c:283:30
	cmp	r0, r1
	bne	.LBB1_9
.Ltmp50:
@ %bb.7:
	@DEBUG_VALUE: TIMER_GetModuleClock:timer <- [DW_OP_LLVM_entry_value 1] $r0
	.loc	4 285 22 is_stmt 1              @ Library/StdDriver/src/timer.c:285:22
	b	CLK_GetPCLK0Freq
.Ltmp51:
.LBB1_8:
	@DEBUG_VALUE: TIMER_GetModuleClock:u32Src <- $r1
	@DEBUG_VALUE: TIMER_GetModuleClock:timer <- $r0
	.loc	4 294 18                        @ Library/StdDriver/src/timer.c:294:18
	movw	r0, :lower16:.L__const.TIMER_GetModuleClock.au32Clk
.Ltmp52:
	@DEBUG_VALUE: TIMER_GetModuleClock:timer <- [DW_OP_LLVM_entry_value 1] $r0
	movt	r0, :upper16:.L__const.TIMER_GetModuleClock.au32Clk
	ldr.w	r0, [r0, r1, lsl #2]
.Ltmp53:
	@DEBUG_VALUE: TIMER_GetModuleClock:u32Clk <- $r0
	.loc	4 297 5                         @ Library/StdDriver/src/timer.c:297:5
	bx	lr
.Ltmp54:
.LBB1_9:
	@DEBUG_VALUE: TIMER_GetModuleClock:timer <- [DW_OP_LLVM_entry_value 1] $r0
	.loc	4 289 22                        @ Library/StdDriver/src/timer.c:289:22
	b	CLK_GetPCLK1Freq
.Ltmp55:
.Lfunc_end1:
	.size	TIMER_GetModuleClock, .Lfunc_end1-TIMER_GetModuleClock
	.cfi_endproc
	.file	5 "C:\\Users\\dinhl\\Documents\\Tesy\\EEET2481_A3_TETRISGAME" "./Library/StdDriver/inc\\clk.h"
	.cantunwind
	.fnend
                                        @ -- End function
	.section	.text.TIMER_Close,"ax",%progbits
	.hidden	TIMER_Close                     @ -- Begin function TIMER_Close
	.globl	TIMER_Close
	.p2align	2
	.type	TIMER_Close,%function
	.code	16                              @ @TIMER_Close
	.thumb_func
TIMER_Close:
.Lfunc_begin2:
	.loc	4 75 0                          @ Library/StdDriver/src/timer.c:75:0
	.fnstart
	.cfi_startproc
@ %bb.0:
	@DEBUG_VALUE: TIMER_Close:timer <- $r0
	movs	r1, #0
.Ltmp56:
	.loc	4 76 16 prologue_end            @ Library/StdDriver/src/timer.c:76:16
	str	r1, [r0]
	.loc	4 77 19                         @ Library/StdDriver/src/timer.c:77:19
	str	r1, [r0, #20]
	.loc	4 78 1                          @ Library/StdDriver/src/timer.c:78:1
	bx	lr
.Ltmp57:
.Lfunc_end2:
	.size	TIMER_Close, .Lfunc_end2-TIMER_Close
	.cfi_endproc
	.cantunwind
	.fnend
                                        @ -- End function
	.section	.text.TIMER_Delay,"ax",%progbits
	.hidden	TIMER_Delay                     @ -- Begin function TIMER_Delay
	.globl	TIMER_Delay
	.p2align	2
	.type	TIMER_Delay,%function
	.code	16                              @ @TIMER_Delay
	.thumb_func
TIMER_Delay:
.Lfunc_begin3:
	.loc	4 95 0                          @ Library/StdDriver/src/timer.c:95:0
	.fnstart
	.cfi_startproc
@ %bb.0:
	@DEBUG_VALUE: TIMER_Delay:timer <- $r0
	@DEBUG_VALUE: TIMER_Delay:u32Usec <- $r1
	.save	{r4, r5, r6, r7, r8, r9, r10, r11, lr}
	push.w	{r4, r5, r6, r7, r8, r9, r10, r11, lr}
	.cfi_def_cfa_offset 36
	.cfi_offset lr, -4
	.cfi_offset r11, -8
	.cfi_offset r10, -12
	.cfi_offset r9, -16
	.cfi_offset r8, -20
	.cfi_offset r7, -24
	.cfi_offset r6, -28
	.cfi_offset r5, -32
	.cfi_offset r4, -36
	.pad	#4
	sub	sp, #4
	.cfi_def_cfa_offset 40
	movw	r11, #0
	movw	r10, #532
	movt	r11, #16389
	@DEBUG_VALUE: TIMER_GetModuleClock:timer <- $r4
	movw	r9, #4096
	mov	r5, r1
.Ltmp58:
	@DEBUG_VALUE: TIMER_Delay:u32Usec <- $r5
	@DEBUG_VALUE: TIMER_Delay:u32Usec <- $r5
	mov	r4, r0
.Ltmp59:
	@DEBUG_VALUE: TIMER_Delay:timer <- $r4
	movt	r10, #16384
.Ltmp60:
	.loc	4 264 8 prologue_end            @ Library/StdDriver/src/timer.c:264:8
	cmp	r0, r11
	movt	r9, #16389
	beq	.LBB3_3
.Ltmp61:
@ %bb.1:
	@DEBUG_VALUE: TIMER_Delay:timer <- $r4
	@DEBUG_VALUE: TIMER_Delay:u32Usec <- $r5
	.loc	4 0 0 is_stmt 0                 @ Library/StdDriver/src/timer.c:0:0
	ldr.w	r0, [r10]
.Ltmp62:
	.loc	4 268 13 is_stmt 1              @ Library/StdDriver/src/timer.c:268:13
	cmp	r4, r9
	beq	.LBB3_4
.Ltmp63:
@ %bb.2:
	@DEBUG_VALUE: TIMER_Delay:timer <- $r4
	@DEBUG_VALUE: TIMER_Delay:u32Usec <- $r5
	.loc	4 0 13 is_stmt 0                @ Library/StdDriver/src/timer.c:0:13
	movw	r1, #256
	movt	r1, #16389
	.loc	4 268 13                        @ Library/StdDriver/src/timer.c:268:13
	cmp	r4, r1
.Ltmp64:
	.loc	4 278 59 is_stmt 1              @ Library/StdDriver/src/timer.c:278:59
	ite	ne
	lsrne	r0, r0, #20
.Ltmp65:
	.loc	4 270 59                        @ Library/StdDriver/src/timer.c:270:59
	lsreq	r0, r0, #12
.Ltmp66:
	@DEBUG_VALUE: TIMER_GetModuleClock:u32Src <- [DW_OP_constu 7, DW_OP_and, DW_OP_stack_value] $r0
	.loc	4 0 59 is_stmt 0                @ Library/StdDriver/src/timer.c:0:59
	b	.LBB3_5
.Ltmp67:
.LBB3_3:
	@DEBUG_VALUE: TIMER_Delay:timer <- $r4
	@DEBUG_VALUE: TIMER_Delay:u32Usec <- $r5
	.loc	4 266 24 is_stmt 1              @ Library/StdDriver/src/timer.c:266:24
	ldr.w	r0, [r10]
	.loc	4 266 59 is_stmt 0              @ Library/StdDriver/src/timer.c:266:59
	lsrs	r0, r0, #8
.Ltmp68:
	@DEBUG_VALUE: TIMER_GetModuleClock:u32Src <- [DW_OP_constu 7, DW_OP_and, DW_OP_stack_value] $r0
	.loc	4 0 59                          @ Library/StdDriver/src/timer.c:0:59
	b	.LBB3_5
.Ltmp69:
.LBB3_4:
	@DEBUG_VALUE: TIMER_Delay:timer <- $r4
	@DEBUG_VALUE: TIMER_Delay:u32Usec <- $r5
	.loc	4 274 59 is_stmt 1              @ Library/StdDriver/src/timer.c:274:59
	lsrs	r0, r0, #16
.Ltmp70:
	@DEBUG_VALUE: TIMER_GetModuleClock:u32Src <- [DW_OP_constu 7, DW_OP_and, DW_OP_stack_value] $r0
.LBB3_5:
	@DEBUG_VALUE: TIMER_GetModuleClock:u32Src <- [DW_OP_constu 7, DW_OP_and, DW_OP_stack_value] $r0
	@DEBUG_VALUE: TIMER_Delay:timer <- $r4
	@DEBUG_VALUE: TIMER_Delay:u32Usec <- $r5
	.loc	4 0 0 is_stmt 0                 @ Library/StdDriver/src/timer.c:0:0
	and	r0, r0, #7
.Ltmp71:
	@DEBUG_VALUE: TIMER_GetModuleClock:u32Src <- $r0
	movw	r8, :lower16:.L__const.TIMER_GetModuleClock.au32Clk
.Ltmp72:
	.loc	4 281 8 is_stmt 1               @ Library/StdDriver/src/timer.c:281:8
	cmp	r0, #2
	movt	r8, :upper16:.L__const.TIMER_GetModuleClock.au32Clk
	orr	r7, r4, #256
	bne	.LBB3_8
.Ltmp73:
@ %bb.6:
	@DEBUG_VALUE: TIMER_GetModuleClock:u32Src <- $r0
	@DEBUG_VALUE: TIMER_Delay:timer <- $r4
	@DEBUG_VALUE: TIMER_Delay:u32Usec <- $r5
	.loc	4 0 8 is_stmt 0                 @ Library/StdDriver/src/timer.c:0:8
	movw	r0, #256
.Ltmp74:
	movt	r0, #16389
.Ltmp75:
	.loc	4 283 30 is_stmt 1              @ Library/StdDriver/src/timer.c:283:30
	cmp	r7, r0
	bne	.LBB3_9
.Ltmp76:
@ %bb.7:
	@DEBUG_VALUE: TIMER_Delay:timer <- $r4
	@DEBUG_VALUE: TIMER_Delay:u32Usec <- $r5
	.loc	4 285 22                        @ Library/StdDriver/src/timer.c:285:22
	bl	CLK_GetPCLK0Freq
.Ltmp77:
	@DEBUG_VALUE: TIMER_GetModuleClock:u32Clk <- $r0
	.loc	4 0 22 is_stmt 0                @ Library/StdDriver/src/timer.c:0:22
	b	.LBB3_10
.Ltmp78:
.LBB3_8:
	@DEBUG_VALUE: TIMER_GetModuleClock:u32Src <- $r0
	@DEBUG_VALUE: TIMER_Delay:timer <- $r4
	@DEBUG_VALUE: TIMER_Delay:u32Usec <- $r5
	.loc	4 294 18 is_stmt 1              @ Library/StdDriver/src/timer.c:294:18
	ldr.w	r0, [r8, r0, lsl #2]
.Ltmp79:
	@DEBUG_VALUE: TIMER_GetModuleClock:u32Clk <- $r0
	.loc	4 0 18 is_stmt 0                @ Library/StdDriver/src/timer.c:0:18
	b	.LBB3_10
.Ltmp80:
.LBB3_9:
	@DEBUG_VALUE: TIMER_Delay:timer <- $r4
	@DEBUG_VALUE: TIMER_Delay:u32Usec <- $r5
	.loc	4 289 22 is_stmt 1              @ Library/StdDriver/src/timer.c:289:22
	bl	CLK_GetPCLK1Freq
.Ltmp81:
	@DEBUG_VALUE: TIMER_GetModuleClock:u32Clk <- $r0
.LBB3_10:
	@DEBUG_VALUE: TIMER_Delay:timer <- $r4
	@DEBUG_VALUE: TIMER_Delay:u32Usec <- $r5
	@DEBUG_VALUE: TIMER_Delay:u32Clk <- $r0
	@DEBUG_VALUE: TIMER_Delay:u32Prescale <- 0
	@DEBUG_VALUE: TIMER_Delay:i <- 0
	.loc	4 0 22 is_stmt 0                @ Library/StdDriver/src/timer.c:0:22
	movw	r1, #16960
	movt	r1, #15
	movs	r2, #0
	.loc	4 104 8 is_stmt 1               @ Library/StdDriver/src/timer.c:104:8
	cmp	r0, r1
	.loc	4 101 16                        @ Library/StdDriver/src/timer.c:101:16
	str	r2, [r4]
	.loc	4 102 19                        @ Library/StdDriver/src/timer.c:102:19
	str	r2, [r4, #20]
	.loc	4 104 8                         @ Library/StdDriver/src/timer.c:104:8
	bhi	.LBB3_12
.Ltmp82:
@ %bb.11:
	@DEBUG_VALUE: TIMER_Delay:i <- 0
	@DEBUG_VALUE: TIMER_Delay:u32Prescale <- 0
	@DEBUG_VALUE: TIMER_Delay:u32Clk <- $r0
	@DEBUG_VALUE: TIMER_Delay:timer <- $r4
	@DEBUG_VALUE: TIMER_Delay:u32Usec <- $r5
	.loc	4 0 8 is_stmt 0                 @ Library/StdDriver/src/timer.c:0:8
	mov.w	r2, #1000
.Ltmp83:
	.loc	4 106 12 is_stmt 1              @ Library/StdDriver/src/timer.c:106:12
	cmp.w	r5, #1000
	it	ls
	movls	r5, r2
.Ltmp84:
	@DEBUG_VALUE: TIMER_Delay:u32Usec <- $r5
	.loc	4 110 12                        @ Library/StdDriver/src/timer.c:110:12
	cmp	r5, r1
	it	hs
	movhs	r5, r1
.Ltmp85:
	@DEBUG_VALUE: TIMER_Delay:u32Usec <- $r5
	.loc	4 0 12 is_stmt 0                @ Library/StdDriver/src/timer.c:0:12
	movw	r1, #51712
	movt	r1, #15258
.Ltmp86:
	@DEBUG_VALUE: TIMER_Delay:u32Prescale <- 0
	.loc	4 130 39 is_stmt 1              @ Library/StdDriver/src/timer.c:130:39
	udiv	r1, r1, r0
.Ltmp87:
	@DEBUG_VALUE: TIMER_Delay:u32NsecPerTick <- $r1
	.loc	4 131 28                        @ Library/StdDriver/src/timer.c:131:28
	muls	r2, r5, r2
	.loc	4 131 38 is_stmt 0              @ Library/StdDriver/src/timer.c:131:38
	udiv	r1, r2, r1
.Ltmp88:
	@DEBUG_VALUE: TIMER_Delay:u32Cmpr <- $r1
	.loc	4 0 38                          @ Library/StdDriver/src/timer.c:0:38
	movs	r5, #0
.Ltmp89:
	b	.LBB3_13
.Ltmp90:
.LBB3_12:
	@DEBUG_VALUE: TIMER_Delay:i <- 0
	@DEBUG_VALUE: TIMER_Delay:u32Prescale <- 0
	@DEBUG_VALUE: TIMER_Delay:u32Clk <- $r0
	@DEBUG_VALUE: TIMER_Delay:timer <- $r4
	@DEBUG_VALUE: TIMER_Delay:u32Usec <- $r5
	movw	r2, #56963
	movt	r2, #17179
.Ltmp91:
	.loc	4 135 37 is_stmt 1              @ Library/StdDriver/src/timer.c:135:37
	umull	r2, r3, r0, r2
.Ltmp92:
	.loc	4 117 12                        @ Library/StdDriver/src/timer.c:117:12
	cmp	r5, #100
	it	ls
	movls	r5, #100
.Ltmp93:
	@DEBUG_VALUE: TIMER_Delay:u32Usec <- $r5
	.loc	4 121 12                        @ Library/StdDriver/src/timer.c:121:12
	cmp	r5, r1
	it	hs
	movhs	r5, r1
.Ltmp94:
	@DEBUG_VALUE: TIMER_Delay:u32Usec <- $r5
	.loc	4 135 37                        @ Library/StdDriver/src/timer.c:135:37
	lsrs	r1, r3, #18
	.loc	4 135 27 is_stmt 0              @ Library/StdDriver/src/timer.c:135:27
	muls	r1, r5, r1
.Ltmp95:
	@DEBUG_VALUE: TIMER_Delay:u32Cmpr <- $r1
	@DEBUG_VALUE: TIMER_Delay:u32Prescale <- [DW_OP_constu 24, DW_OP_shr, DW_OP_stack_value] $r1
	.loc	4 136 32 is_stmt 1              @ Library/StdDriver/src/timer.c:136:32
	lsrs	r5, r1, #24
.Ltmp96:
	@DEBUG_VALUE: TIMER_Delay:u32Prescale <- $r5
	.loc	4 138 46                        @ Library/StdDriver/src/timer.c:138:46
	itte	ne
	addne	r2, r5, #1
	.loc	4 138 31 is_stmt 0              @ Library/StdDriver/src/timer.c:138:31
	udivne	r1, r1, r2
.Ltmp97:
	.loc	4 0 31                          @ Library/StdDriver/src/timer.c:0:31
	moveq	r5, #0
.Ltmp98:
.LBB3_13:
	@DEBUG_VALUE: TIMER_Delay:i <- 0
	@DEBUG_VALUE: TIMER_Delay:u32Clk <- $r0
	@DEBUG_VALUE: TIMER_Delay:timer <- $r4
	@DEBUG_VALUE: TIMER_Delay:u32Prescale <- $r5
	@DEBUG_VALUE: TIMER_Delay:u32Cmpr <- $r1
	.loc	4 141 16 is_stmt 1              @ Library/StdDriver/src/timer.c:141:16
	str	r1, [r4, #4]
	.loc	4 142 59                        @ Library/StdDriver/src/timer.c:142:59
	add.w	r1, r5, #1073741824
.Ltmp99:
	.loc	4 142 16 is_stmt 0              @ Library/StdDriver/src/timer.c:142:16
	str	r1, [r4]
.Ltmp100:
	.loc	4 147 21 is_stmt 1              @ Library/StdDriver/src/timer.c:147:21
	movw	r1, :lower16:SystemCoreClock
	movt	r1, :upper16:SystemCoreClock
	ldr	r6, [r1]
	.loc	4 147 37 is_stmt 0              @ Library/StdDriver/src/timer.c:147:37
	udiv	r2, r6, r0
	.loc	4 147 47                        @ Library/StdDriver/src/timer.c:147:47
	adds	r0, r2, #1
.Ltmp101:
	@DEBUG_VALUE: TIMER_Delay:u32Delay <- $r0
	.loc	4 147 5                         @ Library/StdDriver/src/timer.c:147:5
	bhs	.LBB3_20
.Ltmp102:
@ %bb.14:
	@DEBUG_VALUE: TIMER_Delay:u32Delay <- $r0
	@DEBUG_VALUE: TIMER_Delay:u32Prescale <- $r5
	@DEBUG_VALUE: TIMER_Delay:i <- 0
	@DEBUG_VALUE: TIMER_Delay:timer <- $r4
	ands	r3, r0, #3
	beq	.LBB3_17
.Ltmp103:
@ %bb.15:
	@DEBUG_VALUE: TIMER_Delay:u32Delay <- $r0
	@DEBUG_VALUE: TIMER_Delay:u32Prescale <- $r5
	@DEBUG_VALUE: TIMER_Delay:i <- 0
	@DEBUG_VALUE: TIMER_Delay:timer <- $r4
	@DEBUG_VALUE: TIMER_Delay:u32Delay <- undef
	cmp	r3, #1
	mov	r0, r2
.Ltmp104:
	.loc	4 149 9 is_stmt 1               @ Library/StdDriver/src/timer.c:149:9
	nop
.Ltmp105:
	.loc	4 147 5                         @ Library/StdDriver/src/timer.c:147:5
	beq	.LBB3_17
.Ltmp106:
@ %bb.16:
	@DEBUG_VALUE: TIMER_Delay:u32Prescale <- $r5
	@DEBUG_VALUE: TIMER_Delay:i <- 0
	@DEBUG_VALUE: TIMER_Delay:timer <- $r4
	.loc	4 149 9                         @ Library/StdDriver/src/timer.c:149:9
	nop
.Ltmp107:
	@DEBUG_VALUE: TIMER_Delay:u32Delay <- undef
	@DEBUG_VALUE: TIMER_Delay:u32Delay <- undef
	.loc	4 147 5                         @ Library/StdDriver/src/timer.c:147:5
	cmp	r3, #2
.Ltmp108:
	.loc	4 149 9                         @ Library/StdDriver/src/timer.c:149:9
	itte	ne
	nopne
.Ltmp109:
	.loc	4 147 78                        @ Library/StdDriver/src/timer.c:147:78
	subne	r0, r2, #2
	subeq	r0, r2, #1
.Ltmp110:
.LBB3_17:
	@DEBUG_VALUE: TIMER_Delay:u32Prescale <- $r5
	@DEBUG_VALUE: TIMER_Delay:i <- 0
	@DEBUG_VALUE: TIMER_Delay:timer <- $r4
	.loc	4 147 5 is_stmt 0               @ Library/StdDriver/src/timer.c:147:5
	cmp	r2, #3
	blo	.LBB3_19
.Ltmp111:
	.p2align	2
.LBB3_18:                               @ =>This Inner Loop Header: Depth=1
	@DEBUG_VALUE: TIMER_Delay:u32Prescale <- $r5
	@DEBUG_VALUE: TIMER_Delay:i <- 0
	@DEBUG_VALUE: TIMER_Delay:timer <- $r4
	@DEBUG_VALUE: TIMER_Delay:u32Delay <- $r0
	.loc	4 149 9 is_stmt 1               @ Library/StdDriver/src/timer.c:149:9
	nop
.Ltmp112:
	@DEBUG_VALUE: TIMER_Delay:u32Delay <- [DW_OP_constu 1, DW_OP_minus, DW_OP_stack_value] $r0
	nop
.Ltmp113:
	@DEBUG_VALUE: TIMER_Delay:u32Delay <- [DW_OP_constu 2, DW_OP_minus, DW_OP_stack_value] $r0
	nop
.Ltmp114:
	@DEBUG_VALUE: TIMER_Delay:u32Delay <- [DW_OP_constu 3, DW_OP_minus, DW_OP_stack_value] $r0
	.loc	4 147 78                        @ Library/StdDriver/src/timer.c:147:78
	subs	r0, #4
.Ltmp115:
	@DEBUG_VALUE: TIMER_Delay:u32Delay <- $r0
	.loc	4 149 9                         @ Library/StdDriver/src/timer.c:149:9
	nop
.Ltmp116:
	.loc	4 147 5                         @ Library/StdDriver/src/timer.c:147:5
	bne	.LBB3_18
.Ltmp117:
.LBB3_19:
	@DEBUG_VALUE: TIMER_Delay:u32Prescale <- $r5
	@DEBUG_VALUE: TIMER_Delay:i <- 0
	@DEBUG_VALUE: TIMER_Delay:timer <- $r4
	.loc	4 155 17                        @ Library/StdDriver/src/timer.c:155:17
	ldr	r6, [r1]
.Ltmp118:
.LBB3_20:
	@DEBUG_VALUE: TIMER_Delay:u32Prescale <- $r5
	@DEBUG_VALUE: TIMER_Delay:i <- 0
	@DEBUG_VALUE: TIMER_Delay:timer <- $r4
	@DEBUG_VALUE: TIMER_GetModuleClock:timer <- $r4
	@DEBUG_VALUE: TIMER_GetModuleClock:au32Clk <- undef
	.loc	4 264 8                         @ Library/StdDriver/src/timer.c:264:8
	cmp	r4, r11
	beq	.LBB3_23
.Ltmp119:
@ %bb.21:
	@DEBUG_VALUE: TIMER_GetModuleClock:timer <- $r4
	@DEBUG_VALUE: TIMER_Delay:u32Prescale <- $r5
	@DEBUG_VALUE: TIMER_Delay:i <- 0
	@DEBUG_VALUE: TIMER_Delay:timer <- $r4
	.loc	4 0 0 is_stmt 0                 @ Library/StdDriver/src/timer.c:0:0
	ldr.w	r0, [r10]
.Ltmp120:
	.loc	4 268 13 is_stmt 1              @ Library/StdDriver/src/timer.c:268:13
	cmp	r4, r9
	beq	.LBB3_24
.Ltmp121:
@ %bb.22:
	@DEBUG_VALUE: TIMER_GetModuleClock:timer <- $r4
	@DEBUG_VALUE: TIMER_Delay:u32Prescale <- $r5
	@DEBUG_VALUE: TIMER_Delay:i <- 0
	@DEBUG_VALUE: TIMER_Delay:timer <- $r4
	.loc	4 0 13 is_stmt 0                @ Library/StdDriver/src/timer.c:0:13
	movw	r1, #256
	movt	r1, #16389
	.loc	4 268 13                        @ Library/StdDriver/src/timer.c:268:13
	cmp	r4, r1
.Ltmp122:
	.loc	4 278 59 is_stmt 1              @ Library/StdDriver/src/timer.c:278:59
	ite	ne
	lsrne	r0, r0, #20
.Ltmp123:
	.loc	4 270 59                        @ Library/StdDriver/src/timer.c:270:59
	lsreq	r0, r0, #12
.Ltmp124:
	@DEBUG_VALUE: TIMER_GetModuleClock:u32Src <- [DW_OP_constu 7, DW_OP_and, DW_OP_stack_value] $r0
	.loc	4 0 59 is_stmt 0                @ Library/StdDriver/src/timer.c:0:59
	b	.LBB3_25
.Ltmp125:
.LBB3_23:
	@DEBUG_VALUE: TIMER_GetModuleClock:timer <- $r4
	@DEBUG_VALUE: TIMER_Delay:u32Prescale <- $r5
	@DEBUG_VALUE: TIMER_Delay:i <- 0
	@DEBUG_VALUE: TIMER_Delay:timer <- $r4
	.loc	4 266 24 is_stmt 1              @ Library/StdDriver/src/timer.c:266:24
	ldr.w	r0, [r10]
	.loc	4 266 59 is_stmt 0              @ Library/StdDriver/src/timer.c:266:59
	lsrs	r0, r0, #8
.Ltmp126:
	@DEBUG_VALUE: TIMER_GetModuleClock:u32Src <- [DW_OP_constu 7, DW_OP_and, DW_OP_stack_value] $r0
	.loc	4 0 59                          @ Library/StdDriver/src/timer.c:0:59
	b	.LBB3_25
.Ltmp127:
.LBB3_24:
	@DEBUG_VALUE: TIMER_GetModuleClock:timer <- $r4
	@DEBUG_VALUE: TIMER_Delay:u32Prescale <- $r5
	@DEBUG_VALUE: TIMER_Delay:i <- 0
	@DEBUG_VALUE: TIMER_Delay:timer <- $r4
	.loc	4 274 59 is_stmt 1              @ Library/StdDriver/src/timer.c:274:59
	lsrs	r0, r0, #16
.Ltmp128:
	@DEBUG_VALUE: TIMER_GetModuleClock:u32Src <- [DW_OP_constu 7, DW_OP_and, DW_OP_stack_value] $r0
.LBB3_25:
	@DEBUG_VALUE: TIMER_GetModuleClock:u32Src <- [DW_OP_constu 7, DW_OP_and, DW_OP_stack_value] $r0
	@DEBUG_VALUE: TIMER_GetModuleClock:timer <- $r4
	@DEBUG_VALUE: TIMER_Delay:u32Prescale <- $r5
	@DEBUG_VALUE: TIMER_Delay:i <- 0
	@DEBUG_VALUE: TIMER_Delay:timer <- $r4
	.loc	4 0 0 is_stmt 0                 @ Library/StdDriver/src/timer.c:0:0
	and	r0, r0, #7
.Ltmp129:
	@DEBUG_VALUE: TIMER_GetModuleClock:u32Src <- $r0
	.loc	4 281 8 is_stmt 1               @ Library/StdDriver/src/timer.c:281:8
	cmp	r0, #2
	bne	.LBB3_28
.Ltmp130:
@ %bb.26:
	@DEBUG_VALUE: TIMER_GetModuleClock:u32Src <- $r0
	@DEBUG_VALUE: TIMER_GetModuleClock:timer <- $r4
	@DEBUG_VALUE: TIMER_Delay:u32Prescale <- $r5
	@DEBUG_VALUE: TIMER_Delay:i <- 0
	@DEBUG_VALUE: TIMER_Delay:timer <- $r4
	.loc	4 0 8 is_stmt 0                 @ Library/StdDriver/src/timer.c:0:8
	movw	r0, #256
.Ltmp131:
	movt	r0, #16389
.Ltmp132:
	.loc	4 283 30 is_stmt 1              @ Library/StdDriver/src/timer.c:283:30
	cmp	r7, r0
	bne	.LBB3_29
.Ltmp133:
@ %bb.27:
	@DEBUG_VALUE: TIMER_GetModuleClock:timer <- $r4
	@DEBUG_VALUE: TIMER_Delay:u32Prescale <- $r5
	@DEBUG_VALUE: TIMER_Delay:i <- 0
	@DEBUG_VALUE: TIMER_Delay:timer <- $r4
	.loc	4 285 22                        @ Library/StdDriver/src/timer.c:285:22
	bl	CLK_GetPCLK0Freq
.Ltmp134:
	@DEBUG_VALUE: TIMER_GetModuleClock:u32Clk <- $r0
	.loc	4 0 22 is_stmt 0                @ Library/StdDriver/src/timer.c:0:22
	b	.LBB3_30
.Ltmp135:
.LBB3_28:
	@DEBUG_VALUE: TIMER_GetModuleClock:u32Src <- $r0
	@DEBUG_VALUE: TIMER_GetModuleClock:timer <- $r4
	@DEBUG_VALUE: TIMER_Delay:u32Prescale <- $r5
	@DEBUG_VALUE: TIMER_Delay:i <- 0
	@DEBUG_VALUE: TIMER_Delay:timer <- $r4
	.loc	4 294 18 is_stmt 1              @ Library/StdDriver/src/timer.c:294:18
	ldr.w	r0, [r8, r0, lsl #2]
.Ltmp136:
	@DEBUG_VALUE: TIMER_GetModuleClock:u32Clk <- $r0
	.loc	4 0 18 is_stmt 0                @ Library/StdDriver/src/timer.c:0:18
	b	.LBB3_30
.Ltmp137:
.LBB3_29:
	@DEBUG_VALUE: TIMER_GetModuleClock:timer <- $r4
	@DEBUG_VALUE: TIMER_Delay:u32Prescale <- $r5
	@DEBUG_VALUE: TIMER_Delay:i <- 0
	@DEBUG_VALUE: TIMER_Delay:timer <- $r4
	.loc	4 289 22 is_stmt 1              @ Library/StdDriver/src/timer.c:289:22
	bl	CLK_GetPCLK1Freq
.Ltmp138:
	@DEBUG_VALUE: TIMER_GetModuleClock:u32Clk <- $r0
.LBB3_30:
	@DEBUG_VALUE: TIMER_Delay:u32Prescale <- $r5
	@DEBUG_VALUE: TIMER_Delay:i <- 0
	@DEBUG_VALUE: TIMER_Delay:timer <- $r4
	@DEBUG_VALUE: TIMER_Delay:u32Delay <- undef
	.loc	4 156 22                        @ Library/StdDriver/src/timer.c:156:22
	ldr	r1, [r4, #12]
.Ltmp139:
	@DEBUG_VALUE: TIMER_Delay:u32Cntr <- $r1
	@DEBUG_VALUE: TIMER_Delay:i <- 0
	.loc	4 157 18                        @ Library/StdDriver/src/timer.c:157:18
	ldr	r2, [r4]
	.loc	4 157 5 is_stmt 0               @ Library/StdDriver/src/timer.c:157:5
	lsls	r2, r2, #6
	bmi	.LBB3_32
.Ltmp140:
.LBB3_31:
	@DEBUG_VALUE: TIMER_Delay:u32Cntr <- $r1
	@DEBUG_VALUE: TIMER_Delay:u32Prescale <- $r5
	@DEBUG_VALUE: TIMER_Delay:timer <- $r4
	.loc	4 0 5                           @ Library/StdDriver/src/timer.c:0:5
	movs	r0, #0
	.loc	4 174 1 epilogue_begin is_stmt 1 @ Library/StdDriver/src/timer.c:174:1
	add	sp, #4
	pop.w	{r4, r5, r6, r7, r8, r9, r10, r11, pc}
.Ltmp141:
.LBB3_32:
	@DEBUG_VALUE: TIMER_Delay:u32Cntr <- $r1
	@DEBUG_VALUE: TIMER_Delay:u32Prescale <- $r5
	@DEBUG_VALUE: TIMER_Delay:i <- 0
	@DEBUG_VALUE: TIMER_Delay:timer <- $r4
	.loc	4 0 1 is_stmt 0                 @ Library/StdDriver/src/timer.c:0:1
	udiv	r0, r6, r0
	adds	r2, r5, #1
	muls	r0, r2, r0
.Ltmp142:
	@DEBUG_VALUE: TIMER_Delay:u32Delay <- $r0
	movs	r2, #0
	b	.LBB3_35
.Ltmp143:
	.p2align	2
.LBB3_33:                               @   in Loop: Header=BB3_35 Depth=1
	@DEBUG_VALUE: TIMER_Delay:i <- $r2
	@DEBUG_VALUE: TIMER_Delay:u32Cntr <- $r1
	@DEBUG_VALUE: TIMER_Delay:u32Delay <- $r0
	@DEBUG_VALUE: TIMER_Delay:u32Prescale <- $r5
	@DEBUG_VALUE: TIMER_Delay:timer <- $r4
	@DEBUG_VALUE: TIMER_Delay:i <- 0
	.loc	4 170 30 is_stmt 1              @ Library/StdDriver/src/timer.c:170:30
	ldr	r1, [r4, #12]
.Ltmp144:
	@DEBUG_VALUE: TIMER_Delay:u32Cntr <- $r1
	.loc	4 0 30 is_stmt 0                @ Library/StdDriver/src/timer.c:0:30
	movs	r2, #0
.Ltmp145:
.LBB3_34:                               @   in Loop: Header=BB3_35 Depth=1
	@DEBUG_VALUE: TIMER_Delay:u32Cntr <- $r1
	@DEBUG_VALUE: TIMER_Delay:u32Delay <- $r0
	@DEBUG_VALUE: TIMER_Delay:u32Prescale <- $r5
	@DEBUG_VALUE: TIMER_Delay:timer <- $r4
	@DEBUG_VALUE: TIMER_Delay:i <- $r2
	@DEBUG_VALUE: TIMER_Delay:u32Cntr <- $r1
	.loc	4 157 18 is_stmt 1              @ Library/StdDriver/src/timer.c:157:18
	ldr	r3, [r4]
	.loc	4 157 5 is_stmt 0               @ Library/StdDriver/src/timer.c:157:5
	lsls	r3, r3, #6
	bpl	.LBB3_31
.Ltmp146:
.LBB3_35:                               @ =>This Inner Loop Header: Depth=1
	@DEBUG_VALUE: TIMER_Delay:u32Cntr <- $r1
	@DEBUG_VALUE: TIMER_Delay:u32Delay <- $r0
	@DEBUG_VALUE: TIMER_Delay:u32Prescale <- $r5
	@DEBUG_VALUE: TIMER_Delay:timer <- $r4
	@DEBUG_VALUE: TIMER_Delay:i <- $r2
	@DEBUG_VALUE: TIMER_Delay:u32Cntr <- $r1
	.loc	4 160 30 is_stmt 1              @ Library/StdDriver/src/timer.c:160:30
	ldr	r3, [r4, #12]
.Ltmp147:
	.loc	4 160 12 is_stmt 0              @ Library/StdDriver/src/timer.c:160:12
	cmp	r1, r3
	bne	.LBB3_33
.Ltmp148:
@ %bb.36:                               @   in Loop: Header=BB3_35 Depth=1
	@DEBUG_VALUE: TIMER_Delay:i <- $r2
	@DEBUG_VALUE: TIMER_Delay:u32Cntr <- $r1
	@DEBUG_VALUE: TIMER_Delay:u32Delay <- $r0
	@DEBUG_VALUE: TIMER_Delay:u32Prescale <- $r5
	@DEBUG_VALUE: TIMER_Delay:timer <- $r4
	@DEBUG_VALUE: TIMER_Delay:i <- undef
	.loc	4 162 16 is_stmt 1              @ Library/StdDriver/src/timer.c:162:16
	cmp	r2, r0
	bhi	.LBB3_38
.Ltmp149:
@ %bb.37:                               @   in Loop: Header=BB3_35 Depth=1
	@DEBUG_VALUE: TIMER_Delay:u32Cntr <- $r1
	@DEBUG_VALUE: TIMER_Delay:u32Delay <- $r0
	@DEBUG_VALUE: TIMER_Delay:u32Prescale <- $r5
	@DEBUG_VALUE: TIMER_Delay:timer <- $r4
	.loc	4 0 16 is_stmt 0                @ Library/StdDriver/src/timer.c:0:16
	adds	r2, #1
.Ltmp150:
	@DEBUG_VALUE: TIMER_Delay:i <- $r2
	b	.LBB3_34
.Ltmp151:
.LBB3_38:
	@DEBUG_VALUE: TIMER_Delay:u32Cntr <- $r1
	@DEBUG_VALUE: TIMER_Delay:u32Delay <- $r0
	@DEBUG_VALUE: TIMER_Delay:u32Prescale <- $r5
	@DEBUG_VALUE: TIMER_Delay:timer <- $r4
	mov.w	r0, #-1
.Ltmp152:
	.loc	4 174 1 epilogue_begin is_stmt 1 @ Library/StdDriver/src/timer.c:174:1
	add	sp, #4
	pop.w	{r4, r5, r6, r7, r8, r9, r10, r11, pc}
.Ltmp153:
.Lfunc_end3:
	.size	TIMER_Delay, .Lfunc_end3-TIMER_Delay
	.cfi_endproc
	.cantunwind
	.fnend
                                        @ -- End function
	.section	.text.TIMER_EnableCapture,"ax",%progbits
	.hidden	TIMER_EnableCapture             @ -- Begin function TIMER_EnableCapture
	.globl	TIMER_EnableCapture
	.p2align	2
	.type	TIMER_EnableCapture,%function
	.code	16                              @ @TIMER_EnableCapture
	.thumb_func
TIMER_EnableCapture:
.Lfunc_begin4:
	.fnstart
	.cfi_startproc
@ %bb.0:
	@DEBUG_VALUE: TIMER_EnableCapture:timer <- $r0
	@DEBUG_VALUE: TIMER_EnableCapture:u32CapMode <- $r1
	@DEBUG_VALUE: TIMER_EnableCapture:u32Edge <- $r2
	.loc	4 197 29 prologue_end           @ Library/StdDriver/src/timer.c:197:29
	ldr.w	r12, [r0, #20]
	movw	r3, #28696
	.loc	4 197 36 is_stmt 0              @ Library/StdDriver/src/timer.c:197:36
	bic.w	r3, r12, r3
	.loc	4 198 32 is_stmt 1              @ Library/StdDriver/src/timer.c:198:32
	orrs	r1, r2
.Ltmp154:
	@DEBUG_VALUE: TIMER_EnableCapture:u32CapMode <- [DW_OP_LLVM_entry_value 1] $r1
	.loc	4 198 42 is_stmt 0              @ Library/StdDriver/src/timer.c:198:42
	orrs	r1, r3
	orr	r1, r1, #8
	.loc	4 197 19 is_stmt 1              @ Library/StdDriver/src/timer.c:197:19
	str	r1, [r0, #20]
	.loc	4 199 1                         @ Library/StdDriver/src/timer.c:199:1
	bx	lr
.Ltmp155:
.Lfunc_end4:
	.size	TIMER_EnableCapture, .Lfunc_end4-TIMER_EnableCapture
	.cfi_endproc
	.cantunwind
	.fnend
                                        @ -- End function
	.section	.text.TIMER_DisableCapture,"ax",%progbits
	.hidden	TIMER_DisableCapture            @ -- Begin function TIMER_DisableCapture
	.globl	TIMER_DisableCapture
	.p2align	2
	.type	TIMER_DisableCapture,%function
	.code	16                              @ @TIMER_DisableCapture
	.thumb_func
TIMER_DisableCapture:
.Lfunc_begin5:
	.fnstart
	.cfi_startproc
@ %bb.0:
	@DEBUG_VALUE: TIMER_DisableCapture:timer <- $r0
	.loc	4 212 19 prologue_end           @ Library/StdDriver/src/timer.c:212:19
	ldr	r1, [r0, #20]
	bic	r1, r1, #8
	str	r1, [r0, #20]
	.loc	4 213 1                         @ Library/StdDriver/src/timer.c:213:1
	bx	lr
.Ltmp156:
.Lfunc_end5:
	.size	TIMER_DisableCapture, .Lfunc_end5-TIMER_DisableCapture
	.cfi_endproc
	.cantunwind
	.fnend
                                        @ -- End function
	.section	.text.TIMER_EnableEventCounter,"ax",%progbits
	.hidden	TIMER_EnableEventCounter        @ -- Begin function TIMER_EnableEventCounter
	.globl	TIMER_EnableEventCounter
	.p2align	2
	.type	TIMER_EnableEventCounter,%function
	.code	16                              @ @TIMER_EnableEventCounter
	.thumb_func
TIMER_EnableEventCounter:
.Lfunc_begin6:
	.fnstart
	.cfi_startproc
@ %bb.0:
	@DEBUG_VALUE: TIMER_EnableEventCounter:timer <- $r0
	@DEBUG_VALUE: TIMER_EnableEventCounter:u32Edge <- $r1
	.loc	4 231 29 prologue_end           @ Library/StdDriver/src/timer.c:231:29
	ldr	r2, [r0, #20]
	.loc	4 231 36 is_stmt 0              @ Library/StdDriver/src/timer.c:231:36
	bic	r2, r2, #1
	.loc	4 231 66                        @ Library/StdDriver/src/timer.c:231:66
	orrs	r1, r2
.Ltmp157:
	@DEBUG_VALUE: TIMER_EnableEventCounter:u32Edge <- [DW_OP_LLVM_entry_value 1] $r1
	.loc	4 231 19                        @ Library/StdDriver/src/timer.c:231:19
	str	r1, [r0, #20]
	.loc	4 232 16 is_stmt 1              @ Library/StdDriver/src/timer.c:232:16
	ldr	r1, [r0]
	orr	r1, r1, #16777216
	str	r1, [r0]
	.loc	4 233 1                         @ Library/StdDriver/src/timer.c:233:1
	bx	lr
.Ltmp158:
.Lfunc_end6:
	.size	TIMER_EnableEventCounter, .Lfunc_end6-TIMER_EnableEventCounter
	.cfi_endproc
	.cantunwind
	.fnend
                                        @ -- End function
	.section	.text.TIMER_DisableEventCounter,"ax",%progbits
	.hidden	TIMER_DisableEventCounter       @ -- Begin function TIMER_DisableEventCounter
	.globl	TIMER_DisableEventCounter
	.p2align	2
	.type	TIMER_DisableEventCounter,%function
	.code	16                              @ @TIMER_DisableEventCounter
	.thumb_func
TIMER_DisableEventCounter:
.Lfunc_begin7:
	.fnstart
	.cfi_startproc
@ %bb.0:
	@DEBUG_VALUE: TIMER_DisableEventCounter:timer <- $r0
	.loc	4 246 16 prologue_end           @ Library/StdDriver/src/timer.c:246:16
	ldr	r1, [r0]
	bic	r1, r1, #16777216
	str	r1, [r0]
	.loc	4 247 1                         @ Library/StdDriver/src/timer.c:247:1
	bx	lr
.Ltmp159:
.Lfunc_end7:
	.size	TIMER_DisableEventCounter, .Lfunc_end7-TIMER_DisableEventCounter
	.cfi_endproc
	.cantunwind
	.fnend
                                        @ -- End function
	.section	.text.TIMER_EnableFreqCounter,"ax",%progbits
	.hidden	TIMER_EnableFreqCounter         @ -- Begin function TIMER_EnableFreqCounter
	.globl	TIMER_EnableFreqCounter
	.p2align	2
	.type	TIMER_EnableFreqCounter,%function
	.code	16                              @ @TIMER_EnableFreqCounter
	.thumb_func
TIMER_EnableFreqCounter:
.Lfunc_begin8:
	.loc	4 319 0                         @ Library/StdDriver/src/timer.c:319:0
	.fnstart
	.cfi_startproc
@ %bb.0:
	@DEBUG_VALUE: TIMER_EnableFreqCounter:timer <- $r0
	@DEBUG_VALUE: TIMER_EnableFreqCounter:u32DropCount <- $r1
	@DEBUG_VALUE: TIMER_EnableFreqCounter:u32Timeout <- $r2
	@DEBUG_VALUE: TIMER_EnableFreqCounter:u32EnableInt <- $r3
	.save	{r7, lr}
	push	{r7, lr}
	.cfi_def_cfa_offset 8
	.cfi_offset lr, -4
	.cfi_offset r7, -8
	movw	r12, #0
	movw	r2, #4356
.Ltmp160:
	@DEBUG_VALUE: TIMER_EnableFreqCounter:u32Timeout <- [DW_OP_LLVM_entry_value 1] $r2
	cmp	r3, #0
	movt	r12, #16389
	movt	r2, #16389
	mvn	r1, #-16777216
.Ltmp161:
	@DEBUG_VALUE: TIMER_EnableFreqCounter:u32DropCount <- [DW_OP_LLVM_entry_value 1] $r1
	it	ne
	movne	r3, #1
.Ltmp162:
	@DEBUG_VALUE: TIMER_EnableFreqCounter:u32EnableInt <- [DW_OP_LLVM_entry_value 1] $r3
	.loc	4 324 8 prologue_end            @ Library/StdDriver/src/timer.c:324:8
	cmp	r0, r12
	.loc	4 325 8                         @ Library/StdDriver/src/timer.c:325:8
	add.w	lr, r2, #16
	.loc	4 324 8                         @ Library/StdDriver/src/timer.c:324:8
	it	eq
	addeq.w	r2, r12, #260
	.loc	4 324 12 is_stmt 0              @ Library/StdDriver/src/timer.c:324:12
	str	r1, [r2]
	.loc	4 325 17 is_stmt 1              @ Library/StdDriver/src/timer.c:325:17
	lsls	r1, r3, #5
	.loc	4 325 8 is_stmt 0               @ Library/StdDriver/src/timer.c:325:8
	cmp	r0, r12
	it	eq
	addeq.w	lr, r12, #276
	.loc	4 325 15                        @ Library/StdDriver/src/timer.c:325:15
	str.w	r1, [lr]
	movs	r1, #0
	movt	r1, #16392
	.loc	4 326 16 is_stmt 1              @ Library/StdDriver/src/timer.c:326:16
	str	r1, [r0]
	.loc	4 329 1 epilogue_begin          @ Library/StdDriver/src/timer.c:329:1
	pop	{r7, pc}
.Ltmp163:
.Lfunc_end8:
	.size	TIMER_EnableFreqCounter, .Lfunc_end8-TIMER_EnableFreqCounter
	.cfi_endproc
	.cantunwind
	.fnend
                                        @ -- End function
	.section	.text.TIMER_DisableFreqCounter,"ax",%progbits
	.hidden	TIMER_DisableFreqCounter        @ -- Begin function TIMER_DisableFreqCounter
	.globl	TIMER_DisableFreqCounter
	.p2align	2
	.type	TIMER_DisableFreqCounter,%function
	.code	16                              @ @TIMER_DisableFreqCounter
	.thumb_func
TIMER_DisableFreqCounter:
.Lfunc_begin9:
	.fnstart
	.cfi_startproc
@ %bb.0:
	@DEBUG_VALUE: TIMER_DisableFreqCounter:timer <- $r0
	.loc	4 337 16 prologue_end           @ Library/StdDriver/src/timer.c:337:16
	ldr	r1, [r0]
	bic	r1, r1, #524288
	str	r1, [r0]
	.loc	4 338 1                         @ Library/StdDriver/src/timer.c:338:1
	bx	lr
.Ltmp164:
.Lfunc_end9:
	.size	TIMER_DisableFreqCounter, .Lfunc_end9-TIMER_DisableFreqCounter
	.cfi_endproc
	.cantunwind
	.fnend
                                        @ -- End function
	.section	.text.TIMER_SetTriggerSource,"ax",%progbits
	.hidden	TIMER_SetTriggerSource          @ -- Begin function TIMER_SetTriggerSource
	.globl	TIMER_SetTriggerSource
	.p2align	2
	.type	TIMER_SetTriggerSource,%function
	.code	16                              @ @TIMER_SetTriggerSource
	.thumb_func
TIMER_SetTriggerSource:
.Lfunc_begin10:
	.fnstart
	.cfi_startproc
@ %bb.0:
	@DEBUG_VALUE: TIMER_SetTriggerSource:timer <- $r0
	@DEBUG_VALUE: TIMER_SetTriggerSource:u32Src <- $r1
	.loc	4 351 29 prologue_end           @ Library/StdDriver/src/timer.c:351:29
	ldr	r2, [r0, #28]
	.loc	4 351 36 is_stmt 0              @ Library/StdDriver/src/timer.c:351:36
	bic	r2, r2, #1
	.loc	4 351 65                        @ Library/StdDriver/src/timer.c:351:65
	orrs	r1, r2
.Ltmp165:
	@DEBUG_VALUE: TIMER_SetTriggerSource:u32Src <- [DW_OP_LLVM_entry_value 1] $r1
	.loc	4 351 19                        @ Library/StdDriver/src/timer.c:351:19
	str	r1, [r0, #28]
	.loc	4 352 1 is_stmt 1               @ Library/StdDriver/src/timer.c:352:1
	bx	lr
.Ltmp166:
.Lfunc_end10:
	.size	TIMER_SetTriggerSource, .Lfunc_end10-TIMER_SetTriggerSource
	.cfi_endproc
	.cantunwind
	.fnend
                                        @ -- End function
	.section	.text.TIMER_SetTriggerTarget,"ax",%progbits
	.hidden	TIMER_SetTriggerTarget          @ -- Begin function TIMER_SetTriggerTarget
	.globl	TIMER_SetTriggerTarget
	.p2align	2
	.type	TIMER_SetTriggerTarget,%function
	.code	16                              @ @TIMER_SetTriggerTarget
	.thumb_func
TIMER_SetTriggerTarget:
.Lfunc_begin11:
	.fnstart
	.cfi_startproc
@ %bb.0:
	@DEBUG_VALUE: TIMER_SetTriggerTarget:timer <- $r0
	@DEBUG_VALUE: TIMER_SetTriggerTarget:u32Mask <- $r1
	.loc	4 366 29 prologue_end           @ Library/StdDriver/src/timer.c:366:29
	ldr	r2, [r0, #28]
	.loc	4 366 36 is_stmt 0              @ Library/StdDriver/src/timer.c:366:36
	bic	r2, r2, #30
	.loc	4 366 147                       @ Library/StdDriver/src/timer.c:366:147
	orrs	r1, r2
.Ltmp167:
	@DEBUG_VALUE: TIMER_SetTriggerTarget:u32Mask <- [DW_OP_LLVM_entry_value 1] $r1
	.loc	4 366 19                        @ Library/StdDriver/src/timer.c:366:19
	str	r1, [r0, #28]
	.loc	4 367 1 is_stmt 1               @ Library/StdDriver/src/timer.c:367:1
	bx	lr
.Ltmp168:
.Lfunc_end11:
	.size	TIMER_SetTriggerTarget, .Lfunc_end11-TIMER_SetTriggerTarget
	.cfi_endproc
	.cantunwind
	.fnend
                                        @ -- End function
	.section	.text.TIMER_ResetCounter,"ax",%progbits
	.hidden	TIMER_ResetCounter              @ -- Begin function TIMER_ResetCounter
	.globl	TIMER_ResetCounter
	.p2align	2
	.type	TIMER_ResetCounter,%function
	.code	16                              @ @TIMER_ResetCounter
	.thumb_func
TIMER_ResetCounter:
.Lfunc_begin12:
	.loc	4 381 0                         @ Library/StdDriver/src/timer.c:381:0
	.fnstart
	.cfi_startproc
@ %bb.0:
	@DEBUG_VALUE: TIMER_ResetCounter:timer <- $r0
	.save	{r4, r5, r7, lr}
	push	{r4, r5, r7, lr}
	.cfi_def_cfa_offset 16
	.cfi_offset lr, -4
	.cfi_offset r7, -8
	.cfi_offset r5, -12
	.cfi_offset r4, -16
	mov	r4, r0
.Ltmp169:
	@DEBUG_VALUE: TIMER_ResetCounter:timer <- $r4
	@DEBUG_VALUE: TIMER_ResetCounter:timer <- $r4
	movs	r0, #0
.Ltmp170:
	.loc	4 384 16 prologue_end           @ Library/StdDriver/src/timer.c:384:16
	str	r0, [r4, #12]
	.loc	4 386 17                        @ Library/StdDriver/src/timer.c:386:17
	movw	r0, :lower16:SystemCoreClock
	movt	r0, :upper16:SystemCoreClock
	ldr	r5, [r0]
	movs	r0, #0
	movt	r0, #16389
.Ltmp171:
	@DEBUG_VALUE: TIMER_GetModuleClock:timer <- $r4
	.loc	4 264 8                         @ Library/StdDriver/src/timer.c:264:8
	cmp	r4, r0
	movw	r0, #532
	movt	r0, #16384
	beq	.LBB12_3
.Ltmp172:
@ %bb.1:
	@DEBUG_VALUE: TIMER_GetModuleClock:timer <- $r4
	@DEBUG_VALUE: TIMER_ResetCounter:timer <- $r4
	.loc	4 0 8 is_stmt 0                 @ Library/StdDriver/src/timer.c:0:8
	movw	r1, #4096
.Ltmp173:
	ldr	r0, [r0]
	movt	r1, #16389
.Ltmp174:
	.loc	4 268 13 is_stmt 1              @ Library/StdDriver/src/timer.c:268:13
	cmp	r4, r1
	beq	.LBB12_4
.Ltmp175:
@ %bb.2:
	@DEBUG_VALUE: TIMER_GetModuleClock:timer <- $r4
	@DEBUG_VALUE: TIMER_ResetCounter:timer <- $r4
	.loc	4 0 13 is_stmt 0                @ Library/StdDriver/src/timer.c:0:13
	movw	r1, #256
	movt	r1, #16389
	.loc	4 268 13                        @ Library/StdDriver/src/timer.c:268:13
	cmp	r4, r1
.Ltmp176:
	.loc	4 278 59 is_stmt 1              @ Library/StdDriver/src/timer.c:278:59
	ite	ne
	lsrne	r0, r0, #20
.Ltmp177:
	.loc	4 270 59                        @ Library/StdDriver/src/timer.c:270:59
	lsreq	r0, r0, #12
.Ltmp178:
	@DEBUG_VALUE: TIMER_GetModuleClock:u32Src <- [DW_OP_constu 7, DW_OP_and, DW_OP_stack_value] $r0
	.loc	4 0 59 is_stmt 0                @ Library/StdDriver/src/timer.c:0:59
	b	.LBB12_5
.Ltmp179:
.LBB12_3:
	@DEBUG_VALUE: TIMER_GetModuleClock:timer <- $r4
	@DEBUG_VALUE: TIMER_ResetCounter:timer <- $r4
	.loc	4 266 24 is_stmt 1              @ Library/StdDriver/src/timer.c:266:24
	ldr	r0, [r0]
	.loc	4 266 59 is_stmt 0              @ Library/StdDriver/src/timer.c:266:59
	lsrs	r0, r0, #8
.Ltmp180:
	@DEBUG_VALUE: TIMER_GetModuleClock:u32Src <- [DW_OP_constu 7, DW_OP_and, DW_OP_stack_value] $r0
	.loc	4 0 59                          @ Library/StdDriver/src/timer.c:0:59
	b	.LBB12_5
.Ltmp181:
.LBB12_4:
	@DEBUG_VALUE: TIMER_GetModuleClock:timer <- $r4
	@DEBUG_VALUE: TIMER_ResetCounter:timer <- $r4
	.loc	4 274 59 is_stmt 1              @ Library/StdDriver/src/timer.c:274:59
	lsrs	r0, r0, #16
.Ltmp182:
	@DEBUG_VALUE: TIMER_GetModuleClock:u32Src <- [DW_OP_constu 7, DW_OP_and, DW_OP_stack_value] $r0
.LBB12_5:
	@DEBUG_VALUE: TIMER_GetModuleClock:u32Src <- [DW_OP_constu 7, DW_OP_and, DW_OP_stack_value] $r0
	@DEBUG_VALUE: TIMER_GetModuleClock:timer <- $r4
	@DEBUG_VALUE: TIMER_ResetCounter:timer <- $r4
	.loc	4 0 0 is_stmt 0                 @ Library/StdDriver/src/timer.c:0:0
	and	r0, r0, #7
.Ltmp183:
	@DEBUG_VALUE: TIMER_GetModuleClock:u32Src <- $r0
	.loc	4 281 8 is_stmt 1               @ Library/StdDriver/src/timer.c:281:8
	cmp	r0, #2
	bne	.LBB12_8
.Ltmp184:
@ %bb.6:
	@DEBUG_VALUE: TIMER_GetModuleClock:u32Src <- $r0
	@DEBUG_VALUE: TIMER_GetModuleClock:timer <- $r4
	@DEBUG_VALUE: TIMER_ResetCounter:timer <- $r4
	.loc	4 0 8 is_stmt 0                 @ Library/StdDriver/src/timer.c:0:8
	movw	r1, #256
.Ltmp185:
	.loc	4 283 30 is_stmt 1              @ Library/StdDriver/src/timer.c:283:30
	orr	r0, r4, #256
.Ltmp186:
	.loc	4 0 30 is_stmt 0                @ Library/StdDriver/src/timer.c:0:30
	movt	r1, #16389
	.loc	4 283 30                        @ Library/StdDriver/src/timer.c:283:30
	cmp	r0, r1
	bne	.LBB12_9
.Ltmp187:
@ %bb.7:
	@DEBUG_VALUE: TIMER_GetModuleClock:timer <- $r4
	@DEBUG_VALUE: TIMER_ResetCounter:timer <- $r4
	.loc	4 285 22 is_stmt 1              @ Library/StdDriver/src/timer.c:285:22
	bl	CLK_GetPCLK0Freq
.Ltmp188:
	@DEBUG_VALUE: TIMER_GetModuleClock:u32Clk <- $r0
	.loc	4 0 22 is_stmt 0                @ Library/StdDriver/src/timer.c:0:22
	b	.LBB12_10
.Ltmp189:
.LBB12_8:
	@DEBUG_VALUE: TIMER_GetModuleClock:u32Src <- $r0
	@DEBUG_VALUE: TIMER_GetModuleClock:timer <- $r4
	@DEBUG_VALUE: TIMER_ResetCounter:timer <- $r4
	.loc	4 294 18 is_stmt 1              @ Library/StdDriver/src/timer.c:294:18
	movw	r1, :lower16:.L__const.TIMER_GetModuleClock.au32Clk
	movt	r1, :upper16:.L__const.TIMER_GetModuleClock.au32Clk
	ldr.w	r0, [r1, r0, lsl #2]
.Ltmp190:
	@DEBUG_VALUE: TIMER_GetModuleClock:u32Clk <- $r0
	.loc	4 0 18 is_stmt 0                @ Library/StdDriver/src/timer.c:0:18
	b	.LBB12_10
.Ltmp191:
.LBB12_9:
	@DEBUG_VALUE: TIMER_GetModuleClock:timer <- $r4
	@DEBUG_VALUE: TIMER_ResetCounter:timer <- $r4
	.loc	4 289 22 is_stmt 1              @ Library/StdDriver/src/timer.c:289:22
	bl	CLK_GetPCLK1Freq
.Ltmp192:
	@DEBUG_VALUE: TIMER_GetModuleClock:u32Clk <- $r0
.LBB12_10:
	@DEBUG_VALUE: TIMER_ResetCounter:timer <- $r4
	.loc	4 387 20                        @ Library/StdDriver/src/timer.c:387:20
	ldr	r1, [r4, #12]
	.loc	4 386 33                        @ Library/StdDriver/src/timer.c:386:33
	udiv	r0, r5, r0
	.loc	4 387 71                        @ Library/StdDriver/src/timer.c:387:71
	cmp.w	r1, #-1
	.loc	4 386 64                        @ Library/StdDriver/src/timer.c:386:64
	add.w	r1, r0, r0, lsl #1
.Ltmp193:
	@DEBUG_VALUE: TIMER_ResetCounter:u32Delay <- $r1
	.loc	4 0 64 is_stmt 0                @ Library/StdDriver/src/timer.c:0:64
	bgt	.LBB12_21
	b	.LBB12_18
.Ltmp194:
	.p2align	2
.LBB12_11:                              @   in Loop: Header=BB12_18 Depth=1
	@DEBUG_VALUE: TIMER_ResetCounter:u32Delay <- [DW_OP_constu 1, DW_OP_minus, DW_OP_stack_value] $r1
	@DEBUG_VALUE: TIMER_ResetCounter:timer <- $r4
	.loc	4 389 9 is_stmt 1               @ Library/StdDriver/src/timer.c:389:9
	nop
.Ltmp195:
	@DEBUG_VALUE: TIMER_ResetCounter:u32Delay <- [DW_OP_constu 1, DW_OP_minus, DW_OP_stack_value] $r1
	.loc	4 387 20                        @ Library/StdDriver/src/timer.c:387:20
	ldr	r0, [r4, #12]
	.loc	4 387 71 is_stmt 0              @ Library/StdDriver/src/timer.c:387:71
	cmp.w	r0, #-1
	bgt	.LBB12_20
.Ltmp196:
@ %bb.12:                               @   in Loop: Header=BB12_18 Depth=1
	@DEBUG_VALUE: TIMER_ResetCounter:u32Delay <- [DW_OP_constu 1, DW_OP_minus, DW_OP_stack_value] $r1
	@DEBUG_VALUE: TIMER_ResetCounter:timer <- $r4
	@DEBUG_VALUE: TIMER_ResetCounter:u32Delay <- [DW_OP_constu 2, DW_OP_minus, DW_OP_stack_value] $r1
	.loc	4 387 5                         @ Library/StdDriver/src/timer.c:387:5
	cmp	r1, #2
	beq	.LBB12_19
.Ltmp197:
@ %bb.13:                               @   in Loop: Header=BB12_18 Depth=1
	@DEBUG_VALUE: TIMER_ResetCounter:u32Delay <- [DW_OP_constu 2, DW_OP_minus, DW_OP_stack_value] $r1
	@DEBUG_VALUE: TIMER_ResetCounter:timer <- $r4
	.loc	4 389 9 is_stmt 1               @ Library/StdDriver/src/timer.c:389:9
	nop
.Ltmp198:
	@DEBUG_VALUE: TIMER_ResetCounter:u32Delay <- [DW_OP_constu 2, DW_OP_minus, DW_OP_stack_value] $r1
	.loc	4 387 20                        @ Library/StdDriver/src/timer.c:387:20
	ldr	r0, [r4, #12]
	.loc	4 387 71 is_stmt 0              @ Library/StdDriver/src/timer.c:387:71
	cmp.w	r0, #-1
	bgt	.LBB12_20
.Ltmp199:
@ %bb.14:                               @   in Loop: Header=BB12_18 Depth=1
	@DEBUG_VALUE: TIMER_ResetCounter:u32Delay <- [DW_OP_constu 2, DW_OP_minus, DW_OP_stack_value] $r1
	@DEBUG_VALUE: TIMER_ResetCounter:timer <- $r4
	@DEBUG_VALUE: TIMER_ResetCounter:u32Delay <- [DW_OP_constu 3, DW_OP_minus, DW_OP_stack_value] $r1
	.loc	4 387 5                         @ Library/StdDriver/src/timer.c:387:5
	cmp	r1, #3
	beq	.LBB12_19
.Ltmp200:
@ %bb.15:                               @   in Loop: Header=BB12_18 Depth=1
	@DEBUG_VALUE: TIMER_ResetCounter:u32Delay <- [DW_OP_constu 3, DW_OP_minus, DW_OP_stack_value] $r1
	@DEBUG_VALUE: TIMER_ResetCounter:timer <- $r4
	.loc	4 389 9 is_stmt 1               @ Library/StdDriver/src/timer.c:389:9
	nop
.Ltmp201:
	@DEBUG_VALUE: TIMER_ResetCounter:u32Delay <- [DW_OP_constu 3, DW_OP_minus, DW_OP_stack_value] $r1
	.loc	4 387 20                        @ Library/StdDriver/src/timer.c:387:20
	ldr	r0, [r4, #12]
	.loc	4 387 71 is_stmt 0              @ Library/StdDriver/src/timer.c:387:71
	cmp.w	r0, #-1
	bgt	.LBB12_20
.Ltmp202:
@ %bb.16:                               @   in Loop: Header=BB12_18 Depth=1
	@DEBUG_VALUE: TIMER_ResetCounter:u32Delay <- [DW_OP_constu 3, DW_OP_minus, DW_OP_stack_value] $r1
	@DEBUG_VALUE: TIMER_ResetCounter:timer <- $r4
	@DEBUG_VALUE: TIMER_ResetCounter:u32Delay <- [DW_OP_constu 3, DW_OP_minus, DW_OP_stack_value] $r1
	.loc	4 387 75                        @ Library/StdDriver/src/timer.c:387:75
	subs	r1, #4
.Ltmp203:
	@DEBUG_VALUE: TIMER_ResetCounter:u32Delay <- $r1
	.loc	4 387 5                         @ Library/StdDriver/src/timer.c:387:5
	beq	.LBB12_19
.Ltmp204:
@ %bb.17:                               @   in Loop: Header=BB12_18 Depth=1
	@DEBUG_VALUE: TIMER_ResetCounter:u32Delay <- $r1
	@DEBUG_VALUE: TIMER_ResetCounter:timer <- $r4
	.loc	4 389 9 is_stmt 1               @ Library/StdDriver/src/timer.c:389:9
	nop
.Ltmp205:
	@DEBUG_VALUE: TIMER_ResetCounter:u32Delay <- $r1
	.loc	4 387 20                        @ Library/StdDriver/src/timer.c:387:20
	ldr	r0, [r4, #12]
	.loc	4 387 71 is_stmt 0              @ Library/StdDriver/src/timer.c:387:71
	cmp	r0, #0
	bpl	.LBB12_20
.Ltmp206:
.LBB12_18:                              @ =>This Inner Loop Header: Depth=1
	@DEBUG_VALUE: TIMER_ResetCounter:u32Delay <- $r1
	@DEBUG_VALUE: TIMER_ResetCounter:timer <- $r4
	@DEBUG_VALUE: TIMER_ResetCounter:u32Delay <- [DW_OP_constu 1, DW_OP_minus, DW_OP_stack_value] $r1
	.loc	4 387 5                         @ Library/StdDriver/src/timer.c:387:5
	cmp	r1, #1
	bne	.LBB12_11
.Ltmp207:
.LBB12_19:
	@DEBUG_VALUE: TIMER_ResetCounter:timer <- $r4
	.loc	4 0 5                           @ Library/StdDriver/src/timer.c:0:5
	movs	r1, #0
	b	.LBB12_21
.Ltmp208:
.LBB12_20:
	@DEBUG_VALUE: TIMER_ResetCounter:timer <- $r4
	movs	r1, #1
.Ltmp209:
.LBB12_21:
	@DEBUG_VALUE: TIMER_ResetCounter:timer <- $r4
	@DEBUG_VALUE: TIMER_ResetCounter:u32Delay <- $r1
	movs	r0, #0
	.loc	4 391 12 is_stmt 1              @ Library/StdDriver/src/timer.c:391:12
	cmp	r1, #0
	it	eq
	moveq.w	r0, #-1
	.loc	4 391 5 epilogue_begin is_stmt 0 @ Library/StdDriver/src/timer.c:391:5
	pop	{r4, r5, r7, pc}
.Ltmp210:
.Lfunc_end12:
	.size	TIMER_ResetCounter, .Lfunc_end12-TIMER_ResetCounter
	.cfi_endproc
	.cantunwind
	.fnend
                                        @ -- End function
	.type	.L__const.TIMER_GetModuleClock.au32Clk,%object @ @__const.TIMER_GetModuleClock.au32Clk
	.section	.rodata.cst32,"aM",%progbits,32
	.p2align	2, 0x0
.L__const.TIMER_GetModuleClock.au32Clk:
	.long	12000000                        @ 0xb71b00
	.long	32768                           @ 0x8000
	.long	0                               @ 0x0
	.long	0                               @ 0x0
	.long	0                               @ 0x0
	.long	10000                           @ 0x2710
	.long	0                               @ 0x0
	.long	12000000                        @ 0xb71b00
	.size	.L__const.TIMER_GetModuleClock.au32Clk, 32

	.section	".note.GNU-stack","",%progbits
	.eabi_attribute	30, 1	@ Tag_ABI_optimization_goals
	.ARM_attribute	16, 1	@ Tag_AV_eba